
/home/lixinbao/ysyx-workbench/am-kernels/benchmarks/dhrystone/build/dhrystone-riscv64-nemu.elf：     文件格式 elf64-littleriscv


Disassembly of section .text:

0000000080000000 <_start>:
    80000000:	00000413          	li	s0,0
    80000004:	0000d117          	auipc	sp,0xd
    80000008:	ffc10113          	addi	sp,sp,-4 # 8000d000 <_end>
    8000000c:	645000ef          	jal	ra,80000e50 <_trm_init>

0000000080000010 <Proc_6>:
    80000010:	00200713          	li	a4,2
    80000014:	04e50263          	beq	a0,a4,80000058 <Proc_6+0x48>
    80000018:	00300793          	li	a5,3
    8000001c:	00f5a023          	sw	a5,0(a1)
    80000020:	00100793          	li	a5,1
    80000024:	00f50c63          	beq	a0,a5,8000003c <Proc_6+0x2c>
    80000028:	02a7f263          	bgeu	a5,a0,8000004c <Proc_6+0x3c>
    8000002c:	00400793          	li	a5,4
    80000030:	02f51263          	bne	a0,a5,80000054 <Proc_6+0x44>
    80000034:	00e5a023          	sw	a4,0(a1)
    80000038:	00008067          	ret
    8000003c:	00004717          	auipc	a4,0x4
    80000040:	75c72703          	lw	a4,1884(a4) # 80004798 <Int_Glob>
    80000044:	06400793          	li	a5,100
    80000048:	fee7d8e3          	bge	a5,a4,80000038 <Proc_6+0x28>
    8000004c:	0005a023          	sw	zero,0(a1)
    80000050:	00008067          	ret
    80000054:	00008067          	ret
    80000058:	00100793          	li	a5,1
    8000005c:	00f5a023          	sw	a5,0(a1)
    80000060:	00008067          	ret

0000000080000064 <Proc_1>:
    80000064:	00004717          	auipc	a4,0x4
    80000068:	74470713          	addi	a4,a4,1860 # 800047a8 <Ptr_Glob>
    8000006c:	00073783          	ld	a5,0(a4)
    80000070:	fe010113          	addi	sp,sp,-32
    80000074:	00813823          	sd	s0,16(sp)
    80000078:	0007b603          	ld	a2,0(a5)
    8000007c:	00053403          	ld	s0,0(a0)
    80000080:	0307b683          	ld	a3,48(a5)
    80000084:	0087be03          	ld	t3,8(a5)
    80000088:	0107b303          	ld	t1,16(a5)
    8000008c:	0187b883          	ld	a7,24(a5)
    80000090:	0207b803          	ld	a6,32(a5)
    80000094:	0287b583          	ld	a1,40(a5)
    80000098:	00913423          	sd	s1,8(sp)
    8000009c:	00113c23          	sd	ra,24(sp)
    800000a0:	00c43023          	sd	a2,0(s0)
    800000a4:	00053603          	ld	a2,0(a0)
    800000a8:	01c43423          	sd	t3,8(s0)
    800000ac:	00643823          	sd	t1,16(s0)
    800000b0:	02d43823          	sd	a3,48(s0)
    800000b4:	01143c23          	sd	a7,24(s0)
    800000b8:	03043023          	sd	a6,32(s0)
    800000bc:	02b43423          	sd	a1,40(s0)
    800000c0:	00500693          	li	a3,5
    800000c4:	00d52823          	sw	a3,16(a0)
    800000c8:	00c43023          	sd	a2,0(s0)
    800000cc:	0007b483          	ld	s1,0(a5)
    800000d0:	00004797          	auipc	a5,0x4
    800000d4:	6c87a783          	lw	a5,1736(a5) # 80004798 <Int_Glob>
    800000d8:	00c7879b          	addiw	a5,a5,12
    800000dc:	00943023          	sd	s1,0(s0)
    800000e0:	00073703          	ld	a4,0(a4)
    800000e4:	00d42823          	sw	a3,16(s0)
    800000e8:	00f72823          	sw	a5,16(a4)
    800000ec:	00842783          	lw	a5,8(s0)
    800000f0:	04078a63          	beqz	a5,80000144 <Proc_1+0xe0>
    800000f4:	00053783          	ld	a5,0(a0)
    800000f8:	01813083          	ld	ra,24(sp)
    800000fc:	01013403          	ld	s0,16(sp)
    80000100:	0007b883          	ld	a7,0(a5)
    80000104:	0087b803          	ld	a6,8(a5)
    80000108:	0107b583          	ld	a1,16(a5)
    8000010c:	0187b603          	ld	a2,24(a5)
    80000110:	0207b683          	ld	a3,32(a5)
    80000114:	0287b703          	ld	a4,40(a5)
    80000118:	0307b783          	ld	a5,48(a5)
    8000011c:	01153023          	sd	a7,0(a0)
    80000120:	01053423          	sd	a6,8(a0)
    80000124:	00b53823          	sd	a1,16(a0)
    80000128:	00c53c23          	sd	a2,24(a0)
    8000012c:	02d53023          	sd	a3,32(a0)
    80000130:	02e53423          	sd	a4,40(a0)
    80000134:	02f53823          	sd	a5,48(a0)
    80000138:	00813483          	ld	s1,8(sp)
    8000013c:	02010113          	addi	sp,sp,32
    80000140:	00008067          	ret
    80000144:	00c52503          	lw	a0,12(a0)
    80000148:	00600793          	li	a5,6
    8000014c:	00f42823          	sw	a5,16(s0)
    80000150:	00c40593          	addi	a1,s0,12
    80000154:	ebdff0ef          	jal	ra,80000010 <Proc_6>
    80000158:	01200793          	li	a5,18
    8000015c:	00943023          	sd	s1,0(s0)
    80000160:	01813083          	ld	ra,24(sp)
    80000164:	00f42823          	sw	a5,16(s0)
    80000168:	01013403          	ld	s0,16(sp)
    8000016c:	00813483          	ld	s1,8(sp)
    80000170:	02010113          	addi	sp,sp,32
    80000174:	00008067          	ret

0000000080000178 <main>:
    80000178:	f2010113          	addi	sp,sp,-224
    8000017c:	09713c23          	sd	s7,152(sp)
    80000180:	0c113c23          	sd	ra,216(sp)
    80000184:	0c813823          	sd	s0,208(sp)
    80000188:	0c913423          	sd	s1,200(sp)
    8000018c:	0d213023          	sd	s2,192(sp)
    80000190:	0b313c23          	sd	s3,184(sp)
    80000194:	0b413823          	sd	s4,176(sp)
    80000198:	0b513423          	sd	s5,168(sp)
    8000019c:	0b613023          	sd	s6,160(sp)
    800001a0:	09813823          	sd	s8,144(sp)
    800001a4:	09913423          	sd	s9,136(sp)
    800001a8:	09a13023          	sd	s10,128(sp)
    800001ac:	07b13c23          	sd	s11,120(sp)
    800001b0:	1e5000ef          	jal	ra,80000b94 <ioe_init>
    800001b4:	00001697          	auipc	a3,0x1
    800001b8:	5dc68693          	addi	a3,a3,1500 # 80001790 <free_mem>
    800001bc:	0006b783          	ld	a5,0(a3)
    800001c0:	00000b93          	li	s7,0
    800001c4:	0037f713          	andi	a4,a5,3
    800001c8:	00070c63          	beqz	a4,800001e0 <main+0x68>
    800001cc:	00178713          	addi	a4,a5,1
    800001d0:	00377613          	andi	a2,a4,3
    800001d4:	00070793          	mv	a5,a4
    800001d8:	00170713          	addi	a4,a4,1
    800001dc:	fe061ae3          	bnez	a2,800001d0 <main+0x58>
    800001e0:	00004717          	auipc	a4,0x4
    800001e4:	5c070713          	addi	a4,a4,1472 # 800047a0 <Next_Ptr_Glob>
    800001e8:	00f73023          	sd	a5,0(a4)
    800001ec:	0037f713          	andi	a4,a5,3
    800001f0:	03878513          	addi	a0,a5,56
    800001f4:	00070c63          	beqz	a4,8000020c <main+0x94>
    800001f8:	03978713          	addi	a4,a5,57
    800001fc:	00377613          	andi	a2,a4,3
    80000200:	00070513          	mv	a0,a4
    80000204:	00170713          	addi	a4,a4,1
    80000208:	fe061ae3          	bnez	a2,800001fc <main+0x84>
    8000020c:	00004c97          	auipc	s9,0x4
    80000210:	59cc8c93          	addi	s9,s9,1436 # 800047a8 <Ptr_Glob>
    80000214:	00acb023          	sd	a0,0(s9)
    80000218:	00f53023          	sd	a5,0(a0)
    8000021c:	00100793          	li	a5,1
    80000220:	02179793          	slli	a5,a5,0x21
    80000224:	00f53423          	sd	a5,8(a0)
    80000228:	02800793          	li	a5,40
    8000022c:	03850713          	addi	a4,a0,56
    80000230:	00f52823          	sw	a5,16(a0)
    80000234:	00001597          	auipc	a1,0x1
    80000238:	f5c58593          	addi	a1,a1,-164 # 80001190 <_etext+0x14>
    8000023c:	01450513          	addi	a0,a0,20
    80000240:	00e6b023          	sd	a4,0(a3)
    80000244:	5a1000ef          	jal	ra,80000fe4 <strcpy>
    80000248:	00001597          	auipc	a1,0x1
    8000024c:	f6858593          	addi	a1,a1,-152 # 800011b0 <_etext+0x34>
    80000250:	03010513          	addi	a0,sp,48
    80000254:	591000ef          	jal	ra,80000fe4 <strcpy>
    80000258:	00a00793          	li	a5,10
    8000025c:	00002417          	auipc	s0,0x2
    80000260:	a0c40413          	addi	s0,s0,-1524 # 80001c68 <Arr_2_Glob>
    80000264:	00001597          	auipc	a1,0x1
    80000268:	f6c58593          	addi	a1,a1,-148 # 800011d0 <_etext+0x54>
    8000026c:	64f42e23          	sw	a5,1628(s0)
    80000270:	00001517          	auipc	a0,0x1
    80000274:	f7050513          	addi	a0,a0,-144 # 800011e0 <_etext+0x64>
    80000278:	3f9000ef          	jal	ra,80000e70 <printf>
    8000027c:	0007a7b7          	lui	a5,0x7a
    80000280:	12078593          	addi	a1,a5,288 # 7a120 <_entry_offset+0x7a120>
    80000284:	00001517          	auipc	a0,0x1
    80000288:	f8450513          	addi	a0,a0,-124 # 80001208 <_etext+0x8c>
    8000028c:	00004797          	auipc	a5,0x4
    80000290:	4e07ae23          	sw	zero,1276(a5) # 80004788 <Done>
    80000294:	3dd000ef          	jal	ra,80000e70 <printf>
    80000298:	05010593          	addi	a1,sp,80
    8000029c:	00600513          	li	a0,6
    800002a0:	151000ef          	jal	ra,80000bf0 <ioe_read>
    800002a4:	05013783          	ld	a5,80(sp)
    800002a8:	3e800713          	li	a4,1000
    800002ac:	00700d93          	li	s11,7
    800002b0:	02e7d7b3          	divu	a5,a5,a4
    800002b4:	00800d13          	li	s10,8
    800002b8:	020d9693          	slli	a3,s11,0x20
    800002bc:	020d1713          	slli	a4,s10,0x20
    800002c0:	00768693          	addi	a3,a3,7
    800002c4:	00d13023          	sd	a3,0(sp)
    800002c8:	00870693          	addi	a3,a4,8
    800002cc:	0007a737          	lui	a4,0x7a
    800002d0:	12170713          	addi	a4,a4,289 # 7a121 <_entry_offset+0x7a121>
    800002d4:	00e13c23          	sd	a4,24(sp)
    800002d8:	00004717          	auipc	a4,0x4
    800002dc:	4a070713          	addi	a4,a4,1184 # 80004778 <Begin_Time>
    800002e0:	00100c13          	li	s8,1
    800002e4:	00004997          	auipc	s3,0x4
    800002e8:	4a098993          	addi	s3,s3,1184 # 80004784 <Ch_1_Glob>
    800002ec:	00004b17          	auipc	s6,0x4
    800002f0:	494b0b13          	addi	s6,s6,1172 # 80004780 <Bool_Glob>
    800002f4:	00004497          	auipc	s1,0x4
    800002f8:	49148493          	addi	s1,s1,1169 # 80004785 <Ch_2_Glob>
    800002fc:	00002917          	auipc	s2,0x2
    80000300:	8a490913          	addi	s2,s2,-1884 # 80001ba0 <Arr_1_Glob>
    80000304:	00004a97          	auipc	s5,0x4
    80000308:	494a8a93          	addi	s5,s5,1172 # 80004798 <Int_Glob>
    8000030c:	00d13423          	sd	a3,8(sp)
    80000310:	00001a17          	auipc	s4,0x1
    80000314:	f40a0a13          	addi	s4,s4,-192 # 80001250 <_etext+0xd4>
    80000318:	02079793          	slli	a5,a5,0x20
    8000031c:	0207d793          	srli	a5,a5,0x20
    80000320:	00f73023          	sd	a5,0(a4)
    80000324:	04100793          	li	a5,65
    80000328:	00f98023          	sb	a5,0(s3)
    8000032c:	00100793          	li	a5,1
    80000330:	00fb2023          	sw	a5,0(s6)
    80000334:	00001597          	auipc	a1,0x1
    80000338:	efc58593          	addi	a1,a1,-260 # 80001230 <_etext+0xb4>
    8000033c:	04200793          	li	a5,66
    80000340:	05010513          	addi	a0,sp,80
    80000344:	00f48023          	sb	a5,0(s1)
    80000348:	49d000ef          	jal	ra,80000fe4 <strcpy>
    8000034c:	03214783          	lbu	a5,50(sp)
    80000350:	05314703          	lbu	a4,83(sp)
    80000354:	00000693          	li	a3,0
    80000358:	78e78863          	beq	a5,a4,80000ae8 <main+0x970>
    8000035c:	00068463          	beqz	a3,80000364 <main+0x1ec>
    80000360:	01798023          	sb	s7,0(s3)
    80000364:	05010593          	addi	a1,sp,80
    80000368:	03010513          	addi	a0,sp,48
    8000036c:	4b5000ef          	jal	ra,80001020 <strcmp>
    80000370:	00050713          	mv	a4,a0
    80000374:	00172713          	slti	a4,a4,1
    80000378:	00eb2023          	sw	a4,0(s6)
    8000037c:	00013703          	ld	a4,0(sp)
    80000380:	65c42783          	lw	a5,1628(s0)
    80000384:	000cb503          	ld	a0,0(s9)
    80000388:	02e93023          	sd	a4,32(s2)
    8000038c:	00813703          	ld	a4,8(sp)
    80000390:	0017879b          	addiw	a5,a5,1
    80000394:	64f42e23          	sw	a5,1628(s0)
    80000398:	00003797          	auipc	a5,0x3
    8000039c:	8d078793          	addi	a5,a5,-1840 # 80002c68 <Arr_2_Glob+0x1000>
    800003a0:	66e43023          	sd	a4,1632(s0)
    800003a4:	61b7a023          	sw	s11,1536(a5)
    800003a8:	00500793          	li	a5,5
    800003ac:	00faa023          	sw	a5,0(s5)
    800003b0:	09a92c23          	sw	s10,152(s2)
    800003b4:	cb1ff0ef          	jal	ra,80000064 <Proc_1>
    800003b8:	0004c583          	lbu	a1,0(s1)
    800003bc:	04000713          	li	a4,64
    800003c0:	04100793          	li	a5,65
    800003c4:	00100693          	li	a3,1
    800003c8:	00300813          	li	a6,3
    800003cc:	04300613          	li	a2,67
    800003d0:	72b77263          	bgeu	a4,a1,80000af4 <main+0x97c>
    800003d4:	0004c703          	lbu	a4,0(s1)
    800003d8:	0017879b          	addiw	a5,a5,1
    800003dc:	0ff7f793          	zext.b	a5,a5
    800003e0:	000a0593          	mv	a1,s4
    800003e4:	05010513          	addi	a0,sp,80
    800003e8:	04f76263          	bltu	a4,a5,8000042c <main+0x2b4>
    800003ec:	00000713          	li	a4,0
    800003f0:	6ec78663          	beq	a5,a2,80000adc <main+0x964>
    800003f4:	fee690e3          	bne	a3,a4,800003d4 <main+0x25c>
    800003f8:	00f13823          	sd	a5,16(sp)
    800003fc:	3e9000ef          	jal	ra,80000fe4 <strcpy>
    80000400:	01013783          	ld	a5,16(sp)
    80000404:	0004c703          	lbu	a4,0(s1)
    80000408:	018aa023          	sw	s8,0(s5)
    8000040c:	0017879b          	addiw	a5,a5,1
    80000410:	0ff7f793          	zext.b	a5,a5
    80000414:	00000693          	li	a3,0
    80000418:	000c0813          	mv	a6,s8
    8000041c:	04300613          	li	a2,67
    80000420:	000a0593          	mv	a1,s4
    80000424:	05010513          	addi	a0,sp,80
    80000428:	fcf772e3          	bgeu	a4,a5,800003ec <main+0x274>
    8000042c:	0018179b          	slliw	a5,a6,0x1
    80000430:	010787bb          	addw	a5,a5,a6
    80000434:	00700713          	li	a4,7
    80000438:	02e7c73b          	divw	a4,a5,a4
    8000043c:	ff97879b          	addiw	a5,a5,-7
    80000440:	0037961b          	slliw	a2,a5,0x3
    80000444:	40f607bb          	subw	a5,a2,a5
    80000448:	40e787bb          	subw	a5,a5,a4
    8000044c:	0007061b          	sext.w	a2,a4
    80000450:	0009c703          	lbu	a4,0(s3)
    80000454:	04100593          	li	a1,65
    80000458:	00b71863          	bne	a4,a1,80000468 <main+0x2f0>
    8000045c:	000aa703          	lw	a4,0(s5)
    80000460:	0096061b          	addiw	a2,a2,9
    80000464:	40e6063b          	subw	a2,a2,a4
    80000468:	01813703          	ld	a4,24(sp)
    8000046c:	001c0c1b          	addiw	s8,s8,1
    80000470:	eaec1ae3          	bne	s8,a4,80000324 <main+0x1ac>
    80000474:	02810593          	addi	a1,sp,40
    80000478:	00600513          	li	a0,6
    8000047c:	00d13823          	sd	a3,16(sp)
    80000480:	00c13423          	sd	a2,8(sp)
    80000484:	00f13023          	sd	a5,0(sp)
    80000488:	768000ef          	jal	ra,80000bf0 <ioe_read>
    8000048c:	02813703          	ld	a4,40(sp)
    80000490:	3e800593          	li	a1,1000
    80000494:	00004797          	auipc	a5,0x4
    80000498:	2e478793          	addi	a5,a5,740 # 80004778 <Begin_Time>
    8000049c:	02b75733          	divu	a4,a4,a1
    800004a0:	0007b503          	ld	a0,0(a5)
    800004a4:	000aa583          	lw	a1,0(s5)
    800004a8:	00100813          	li	a6,1
    800004ac:	00004a17          	auipc	s4,0x4
    800004b0:	304a0a13          	addi	s4,s4,772 # 800047b0 <User_Time>
    800004b4:	00004897          	auipc	a7,0x4
    800004b8:	2d08aa23          	sw	a6,724(a7) # 80004788 <Done>
    800004bc:	00500813          	li	a6,5
    800004c0:	00013783          	ld	a5,0(sp)
    800004c4:	00813603          	ld	a2,8(sp)
    800004c8:	01013683          	ld	a3,16(sp)
    800004cc:	02071713          	slli	a4,a4,0x20
    800004d0:	02075713          	srli	a4,a4,0x20
    800004d4:	40a70533          	sub	a0,a4,a0
    800004d8:	00004897          	auipc	a7,0x4
    800004dc:	2ae8bc23          	sd	a4,696(a7) # 80004790 <End_Time>
    800004e0:	00aa3023          	sd	a0,0(s4)
    800004e4:	03058a63          	beq	a1,a6,80000518 <main+0x3a0>
    800004e8:	00001517          	auipc	a0,0x1
    800004ec:	d8850513          	addi	a0,a0,-632 # 80001270 <_etext+0xf4>
    800004f0:	00001717          	auipc	a4,0x1
    800004f4:	2a072423          	sw	zero,680(a4) # 80001798 <pass>
    800004f8:	179000ef          	jal	ra,80000e70 <printf>
    800004fc:	00500593          	li	a1,5
    80000500:	00001517          	auipc	a0,0x1
    80000504:	d9050513          	addi	a0,a0,-624 # 80001290 <_etext+0x114>
    80000508:	169000ef          	jal	ra,80000e70 <printf>
    8000050c:	01013683          	ld	a3,16(sp)
    80000510:	00813603          	ld	a2,8(sp)
    80000514:	00013783          	ld	a5,0(sp)
    80000518:	000b2583          	lw	a1,0(s6)
    8000051c:	00100713          	li	a4,1
    80000520:	04e58063          	beq	a1,a4,80000560 <main+0x3e8>
    80000524:	00001517          	auipc	a0,0x1
    80000528:	d8c50513          	addi	a0,a0,-628 # 800012b0 <_etext+0x134>
    8000052c:	00d13823          	sd	a3,16(sp)
    80000530:	00c13423          	sd	a2,8(sp)
    80000534:	00f13023          	sd	a5,0(sp)
    80000538:	00001717          	auipc	a4,0x1
    8000053c:	26072023          	sw	zero,608(a4) # 80001798 <pass>
    80000540:	131000ef          	jal	ra,80000e70 <printf>
    80000544:	00100593          	li	a1,1
    80000548:	00001517          	auipc	a0,0x1
    8000054c:	d4850513          	addi	a0,a0,-696 # 80001290 <_etext+0x114>
    80000550:	121000ef          	jal	ra,80000e70 <printf>
    80000554:	01013683          	ld	a3,16(sp)
    80000558:	00813603          	ld	a2,8(sp)
    8000055c:	00013783          	ld	a5,0(sp)
    80000560:	0009c583          	lbu	a1,0(s3)
    80000564:	04100713          	li	a4,65
    80000568:	04e58063          	beq	a1,a4,800005a8 <main+0x430>
    8000056c:	00001517          	auipc	a0,0x1
    80000570:	d6450513          	addi	a0,a0,-668 # 800012d0 <_etext+0x154>
    80000574:	00d13823          	sd	a3,16(sp)
    80000578:	00c13423          	sd	a2,8(sp)
    8000057c:	00f13023          	sd	a5,0(sp)
    80000580:	00001717          	auipc	a4,0x1
    80000584:	20072c23          	sw	zero,536(a4) # 80001798 <pass>
    80000588:	0e9000ef          	jal	ra,80000e70 <printf>
    8000058c:	04100593          	li	a1,65
    80000590:	00001517          	auipc	a0,0x1
    80000594:	d6050513          	addi	a0,a0,-672 # 800012f0 <_etext+0x174>
    80000598:	0d9000ef          	jal	ra,80000e70 <printf>
    8000059c:	01013683          	ld	a3,16(sp)
    800005a0:	00813603          	ld	a2,8(sp)
    800005a4:	00013783          	ld	a5,0(sp)
    800005a8:	0004c583          	lbu	a1,0(s1)
    800005ac:	04200713          	li	a4,66
    800005b0:	04e58063          	beq	a1,a4,800005f0 <main+0x478>
    800005b4:	00001517          	auipc	a0,0x1
    800005b8:	d5c50513          	addi	a0,a0,-676 # 80001310 <_etext+0x194>
    800005bc:	00d13823          	sd	a3,16(sp)
    800005c0:	00c13423          	sd	a2,8(sp)
    800005c4:	00f13023          	sd	a5,0(sp)
    800005c8:	00001717          	auipc	a4,0x1
    800005cc:	1c072823          	sw	zero,464(a4) # 80001798 <pass>
    800005d0:	0a1000ef          	jal	ra,80000e70 <printf>
    800005d4:	04200593          	li	a1,66
    800005d8:	00001517          	auipc	a0,0x1
    800005dc:	d1850513          	addi	a0,a0,-744 # 800012f0 <_etext+0x174>
    800005e0:	091000ef          	jal	ra,80000e70 <printf>
    800005e4:	01013683          	ld	a3,16(sp)
    800005e8:	00813603          	ld	a2,8(sp)
    800005ec:	00013783          	ld	a5,0(sp)
    800005f0:	02092583          	lw	a1,32(s2)
    800005f4:	00700713          	li	a4,7
    800005f8:	04e58063          	beq	a1,a4,80000638 <main+0x4c0>
    800005fc:	00001517          	auipc	a0,0x1
    80000600:	d3450513          	addi	a0,a0,-716 # 80001330 <_etext+0x1b4>
    80000604:	00d13823          	sd	a3,16(sp)
    80000608:	00c13423          	sd	a2,8(sp)
    8000060c:	00f13023          	sd	a5,0(sp)
    80000610:	00001717          	auipc	a4,0x1
    80000614:	18072423          	sw	zero,392(a4) # 80001798 <pass>
    80000618:	059000ef          	jal	ra,80000e70 <printf>
    8000061c:	00700593          	li	a1,7
    80000620:	00001517          	auipc	a0,0x1
    80000624:	c7050513          	addi	a0,a0,-912 # 80001290 <_etext+0x114>
    80000628:	049000ef          	jal	ra,80000e70 <printf>
    8000062c:	01013683          	ld	a3,16(sp)
    80000630:	00813603          	ld	a2,8(sp)
    80000634:	00013783          	ld	a5,0(sp)
    80000638:	65c42583          	lw	a1,1628(s0)
    8000063c:	0007a737          	lui	a4,0x7a
    80000640:	12a70713          	addi	a4,a4,298 # 7a12a <_entry_offset+0x7a12a>
    80000644:	02e58e63          	beq	a1,a4,80000680 <main+0x508>
    80000648:	00001517          	auipc	a0,0x1
    8000064c:	d0850513          	addi	a0,a0,-760 # 80001350 <_etext+0x1d4>
    80000650:	00d13823          	sd	a3,16(sp)
    80000654:	00c13423          	sd	a2,8(sp)
    80000658:	00f13023          	sd	a5,0(sp)
    8000065c:	00001717          	auipc	a4,0x1
    80000660:	12072e23          	sw	zero,316(a4) # 80001798 <pass>
    80000664:	00d000ef          	jal	ra,80000e70 <printf>
    80000668:	00001517          	auipc	a0,0x1
    8000066c:	d0850513          	addi	a0,a0,-760 # 80001370 <_etext+0x1f4>
    80000670:	001000ef          	jal	ra,80000e70 <printf>
    80000674:	01013683          	ld	a3,16(sp)
    80000678:	00813603          	ld	a2,8(sp)
    8000067c:	00013783          	ld	a5,0(sp)
    80000680:	000cb703          	ld	a4,0(s9)
    80000684:	00872583          	lw	a1,8(a4)
    80000688:	04058063          	beqz	a1,800006c8 <main+0x550>
    8000068c:	00001517          	auipc	a0,0x1
    80000690:	d1450513          	addi	a0,a0,-748 # 800013a0 <_etext+0x224>
    80000694:	00d13823          	sd	a3,16(sp)
    80000698:	00c13423          	sd	a2,8(sp)
    8000069c:	00f13023          	sd	a5,0(sp)
    800006a0:	00001717          	auipc	a4,0x1
    800006a4:	0e072c23          	sw	zero,248(a4) # 80001798 <pass>
    800006a8:	7c8000ef          	jal	ra,80000e70 <printf>
    800006ac:	00000593          	li	a1,0
    800006b0:	00001517          	auipc	a0,0x1
    800006b4:	be050513          	addi	a0,a0,-1056 # 80001290 <_etext+0x114>
    800006b8:	7b8000ef          	jal	ra,80000e70 <printf>
    800006bc:	01013683          	ld	a3,16(sp)
    800006c0:	00813603          	ld	a2,8(sp)
    800006c4:	00013783          	ld	a5,0(sp)
    800006c8:	000cb583          	ld	a1,0(s9)
    800006cc:	00200713          	li	a4,2
    800006d0:	00c5a583          	lw	a1,12(a1)
    800006d4:	04e58063          	beq	a1,a4,80000714 <main+0x59c>
    800006d8:	00001517          	auipc	a0,0x1
    800006dc:	cf050513          	addi	a0,a0,-784 # 800013c8 <_etext+0x24c>
    800006e0:	00d13823          	sd	a3,16(sp)
    800006e4:	00c13423          	sd	a2,8(sp)
    800006e8:	00f13023          	sd	a5,0(sp)
    800006ec:	00001717          	auipc	a4,0x1
    800006f0:	0a072623          	sw	zero,172(a4) # 80001798 <pass>
    800006f4:	77c000ef          	jal	ra,80000e70 <printf>
    800006f8:	00200593          	li	a1,2
    800006fc:	00001517          	auipc	a0,0x1
    80000700:	b9450513          	addi	a0,a0,-1132 # 80001290 <_etext+0x114>
    80000704:	76c000ef          	jal	ra,80000e70 <printf>
    80000708:	01013683          	ld	a3,16(sp)
    8000070c:	00813603          	ld	a2,8(sp)
    80000710:	00013783          	ld	a5,0(sp)
    80000714:	000cb583          	ld	a1,0(s9)
    80000718:	01100713          	li	a4,17
    8000071c:	0105a583          	lw	a1,16(a1)
    80000720:	04e58063          	beq	a1,a4,80000760 <main+0x5e8>
    80000724:	00001517          	auipc	a0,0x1
    80000728:	ccc50513          	addi	a0,a0,-820 # 800013f0 <_etext+0x274>
    8000072c:	00d13823          	sd	a3,16(sp)
    80000730:	00c13423          	sd	a2,8(sp)
    80000734:	00f13023          	sd	a5,0(sp)
    80000738:	00001717          	auipc	a4,0x1
    8000073c:	06072023          	sw	zero,96(a4) # 80001798 <pass>
    80000740:	730000ef          	jal	ra,80000e70 <printf>
    80000744:	01100593          	li	a1,17
    80000748:	00001517          	auipc	a0,0x1
    8000074c:	b4850513          	addi	a0,a0,-1208 # 80001290 <_etext+0x114>
    80000750:	720000ef          	jal	ra,80000e70 <printf>
    80000754:	01013683          	ld	a3,16(sp)
    80000758:	00813603          	ld	a2,8(sp)
    8000075c:	00013783          	ld	a5,0(sp)
    80000760:	000cb503          	ld	a0,0(s9)
    80000764:	00001597          	auipc	a1,0x1
    80000768:	a2c58593          	addi	a1,a1,-1492 # 80001190 <_etext+0x14>
    8000076c:	00d13823          	sd	a3,16(sp)
    80000770:	01450513          	addi	a0,a0,20
    80000774:	00c13423          	sd	a2,8(sp)
    80000778:	00f13023          	sd	a5,0(sp)
    8000077c:	0a5000ef          	jal	ra,80001020 <strcmp>
    80000780:	00013783          	ld	a5,0(sp)
    80000784:	00813603          	ld	a2,8(sp)
    80000788:	01013683          	ld	a3,16(sp)
    8000078c:	02050c63          	beqz	a0,800007c4 <main+0x64c>
    80000790:	000cb583          	ld	a1,0(s9)
    80000794:	00001517          	auipc	a0,0x1
    80000798:	c8450513          	addi	a0,a0,-892 # 80001418 <_etext+0x29c>
    8000079c:	00001717          	auipc	a4,0x1
    800007a0:	fe072e23          	sw	zero,-4(a4) # 80001798 <pass>
    800007a4:	01458593          	addi	a1,a1,20
    800007a8:	6c8000ef          	jal	ra,80000e70 <printf>
    800007ac:	00001517          	auipc	a0,0x1
    800007b0:	c9450513          	addi	a0,a0,-876 # 80001440 <_etext+0x2c4>
    800007b4:	6bc000ef          	jal	ra,80000e70 <printf>
    800007b8:	01013683          	ld	a3,16(sp)
    800007bc:	00813603          	ld	a2,8(sp)
    800007c0:	00013783          	ld	a5,0(sp)
    800007c4:	00004717          	auipc	a4,0x4
    800007c8:	fdc70713          	addi	a4,a4,-36 # 800047a0 <Next_Ptr_Glob>
    800007cc:	00073703          	ld	a4,0(a4)
    800007d0:	00872583          	lw	a1,8(a4)
    800007d4:	04058063          	beqz	a1,80000814 <main+0x69c>
    800007d8:	00001517          	auipc	a0,0x1
    800007dc:	ca050513          	addi	a0,a0,-864 # 80001478 <_etext+0x2fc>
    800007e0:	00d13823          	sd	a3,16(sp)
    800007e4:	00c13423          	sd	a2,8(sp)
    800007e8:	00f13023          	sd	a5,0(sp)
    800007ec:	00001717          	auipc	a4,0x1
    800007f0:	fa072623          	sw	zero,-84(a4) # 80001798 <pass>
    800007f4:	67c000ef          	jal	ra,80000e70 <printf>
    800007f8:	00000593          	li	a1,0
    800007fc:	00001517          	auipc	a0,0x1
    80000800:	a9450513          	addi	a0,a0,-1388 # 80001290 <_etext+0x114>
    80000804:	66c000ef          	jal	ra,80000e70 <printf>
    80000808:	01013683          	ld	a3,16(sp)
    8000080c:	00813603          	ld	a2,8(sp)
    80000810:	00013783          	ld	a5,0(sp)
    80000814:	00004717          	auipc	a4,0x4
    80000818:	f8c70713          	addi	a4,a4,-116 # 800047a0 <Next_Ptr_Glob>
    8000081c:	00073583          	ld	a1,0(a4)
    80000820:	00100713          	li	a4,1
    80000824:	00c5a583          	lw	a1,12(a1)
    80000828:	04e58063          	beq	a1,a4,80000868 <main+0x6f0>
    8000082c:	00001517          	auipc	a0,0x1
    80000830:	c7450513          	addi	a0,a0,-908 # 800014a0 <_etext+0x324>
    80000834:	00d13823          	sd	a3,16(sp)
    80000838:	00c13423          	sd	a2,8(sp)
    8000083c:	00f13023          	sd	a5,0(sp)
    80000840:	00001717          	auipc	a4,0x1
    80000844:	f4072c23          	sw	zero,-168(a4) # 80001798 <pass>
    80000848:	628000ef          	jal	ra,80000e70 <printf>
    8000084c:	00100593          	li	a1,1
    80000850:	00001517          	auipc	a0,0x1
    80000854:	a4050513          	addi	a0,a0,-1472 # 80001290 <_etext+0x114>
    80000858:	618000ef          	jal	ra,80000e70 <printf>
    8000085c:	01013683          	ld	a3,16(sp)
    80000860:	00813603          	ld	a2,8(sp)
    80000864:	00013783          	ld	a5,0(sp)
    80000868:	00004717          	auipc	a4,0x4
    8000086c:	f3870713          	addi	a4,a4,-200 # 800047a0 <Next_Ptr_Glob>
    80000870:	00073583          	ld	a1,0(a4)
    80000874:	01200713          	li	a4,18
    80000878:	0105a583          	lw	a1,16(a1)
    8000087c:	04e58063          	beq	a1,a4,800008bc <main+0x744>
    80000880:	00001517          	auipc	a0,0x1
    80000884:	c4850513          	addi	a0,a0,-952 # 800014c8 <_etext+0x34c>
    80000888:	00d13823          	sd	a3,16(sp)
    8000088c:	00c13423          	sd	a2,8(sp)
    80000890:	00f13023          	sd	a5,0(sp)
    80000894:	00001717          	auipc	a4,0x1
    80000898:	f0072223          	sw	zero,-252(a4) # 80001798 <pass>
    8000089c:	5d4000ef          	jal	ra,80000e70 <printf>
    800008a0:	01200593          	li	a1,18
    800008a4:	00001517          	auipc	a0,0x1
    800008a8:	9ec50513          	addi	a0,a0,-1556 # 80001290 <_etext+0x114>
    800008ac:	5c4000ef          	jal	ra,80000e70 <printf>
    800008b0:	01013683          	ld	a3,16(sp)
    800008b4:	00813603          	ld	a2,8(sp)
    800008b8:	00013783          	ld	a5,0(sp)
    800008bc:	00004417          	auipc	s0,0x4
    800008c0:	ee440413          	addi	s0,s0,-284 # 800047a0 <Next_Ptr_Glob>
    800008c4:	00043503          	ld	a0,0(s0)
    800008c8:	00001597          	auipc	a1,0x1
    800008cc:	8c858593          	addi	a1,a1,-1848 # 80001190 <_etext+0x14>
    800008d0:	00d13823          	sd	a3,16(sp)
    800008d4:	01450513          	addi	a0,a0,20
    800008d8:	00c13423          	sd	a2,8(sp)
    800008dc:	00f13023          	sd	a5,0(sp)
    800008e0:	740000ef          	jal	ra,80001020 <strcmp>
    800008e4:	00013783          	ld	a5,0(sp)
    800008e8:	00813603          	ld	a2,8(sp)
    800008ec:	01013683          	ld	a3,16(sp)
    800008f0:	02050c63          	beqz	a0,80000928 <main+0x7b0>
    800008f4:	00043583          	ld	a1,0(s0)
    800008f8:	00001517          	auipc	a0,0x1
    800008fc:	bf850513          	addi	a0,a0,-1032 # 800014f0 <_etext+0x374>
    80000900:	00001717          	auipc	a4,0x1
    80000904:	e8072c23          	sw	zero,-360(a4) # 80001798 <pass>
    80000908:	01458593          	addi	a1,a1,20
    8000090c:	564000ef          	jal	ra,80000e70 <printf>
    80000910:	00001517          	auipc	a0,0x1
    80000914:	b3050513          	addi	a0,a0,-1232 # 80001440 <_etext+0x2c4>
    80000918:	558000ef          	jal	ra,80000e70 <printf>
    8000091c:	01013683          	ld	a3,16(sp)
    80000920:	00813603          	ld	a2,8(sp)
    80000924:	00013783          	ld	a5,0(sp)
    80000928:	00500713          	li	a4,5
    8000092c:	02e60e63          	beq	a2,a4,80000968 <main+0x7f0>
    80000930:	00060593          	mv	a1,a2
    80000934:	00001517          	auipc	a0,0x1
    80000938:	be450513          	addi	a0,a0,-1052 # 80001518 <_etext+0x39c>
    8000093c:	00d13423          	sd	a3,8(sp)
    80000940:	00f13023          	sd	a5,0(sp)
    80000944:	00001717          	auipc	a4,0x1
    80000948:	e4072a23          	sw	zero,-428(a4) # 80001798 <pass>
    8000094c:	524000ef          	jal	ra,80000e70 <printf>
    80000950:	00500593          	li	a1,5
    80000954:	00001517          	auipc	a0,0x1
    80000958:	93c50513          	addi	a0,a0,-1732 # 80001290 <_etext+0x114>
    8000095c:	514000ef          	jal	ra,80000e70 <printf>
    80000960:	00813683          	ld	a3,8(sp)
    80000964:	00013783          	ld	a5,0(sp)
    80000968:	00d00713          	li	a4,13
    8000096c:	02e78a63          	beq	a5,a4,800009a0 <main+0x828>
    80000970:	00078593          	mv	a1,a5
    80000974:	00001517          	auipc	a0,0x1
    80000978:	bc450513          	addi	a0,a0,-1084 # 80001538 <_etext+0x3bc>
    8000097c:	00d13023          	sd	a3,0(sp)
    80000980:	00001797          	auipc	a5,0x1
    80000984:	e007ac23          	sw	zero,-488(a5) # 80001798 <pass>
    80000988:	4e8000ef          	jal	ra,80000e70 <printf>
    8000098c:	00d00593          	li	a1,13
    80000990:	00001517          	auipc	a0,0x1
    80000994:	90050513          	addi	a0,a0,-1792 # 80001290 <_etext+0x114>
    80000998:	4d8000ef          	jal	ra,80000e70 <printf>
    8000099c:	00013683          	ld	a3,0(sp)
    800009a0:	02069663          	bnez	a3,800009cc <main+0x854>
    800009a4:	00000593          	li	a1,0
    800009a8:	00001517          	auipc	a0,0x1
    800009ac:	bb050513          	addi	a0,a0,-1104 # 80001558 <_etext+0x3dc>
    800009b0:	00001797          	auipc	a5,0x1
    800009b4:	de07a423          	sw	zero,-536(a5) # 80001798 <pass>
    800009b8:	4b8000ef          	jal	ra,80000e70 <printf>
    800009bc:	00100593          	li	a1,1
    800009c0:	00001517          	auipc	a0,0x1
    800009c4:	8d050513          	addi	a0,a0,-1840 # 80001290 <_etext+0x114>
    800009c8:	4a8000ef          	jal	ra,80000e70 <printf>
    800009cc:	00000597          	auipc	a1,0x0
    800009d0:	7e458593          	addi	a1,a1,2020 # 800011b0 <_etext+0x34>
    800009d4:	03010513          	addi	a0,sp,48
    800009d8:	648000ef          	jal	ra,80001020 <strcmp>
    800009dc:	02050463          	beqz	a0,80000a04 <main+0x88c>
    800009e0:	03010593          	addi	a1,sp,48
    800009e4:	00001517          	auipc	a0,0x1
    800009e8:	b9450513          	addi	a0,a0,-1132 # 80001578 <_etext+0x3fc>
    800009ec:	00001797          	auipc	a5,0x1
    800009f0:	da07a623          	sw	zero,-596(a5) # 80001798 <pass>
    800009f4:	47c000ef          	jal	ra,80000e70 <printf>
    800009f8:	00001517          	auipc	a0,0x1
    800009fc:	ba050513          	addi	a0,a0,-1120 # 80001598 <_etext+0x41c>
    80000a00:	470000ef          	jal	ra,80000e70 <printf>
    80000a04:	00001597          	auipc	a1,0x1
    80000a08:	82c58593          	addi	a1,a1,-2004 # 80001230 <_etext+0xb4>
    80000a0c:	05010513          	addi	a0,sp,80
    80000a10:	610000ef          	jal	ra,80001020 <strcmp>
    80000a14:	02050463          	beqz	a0,80000a3c <main+0x8c4>
    80000a18:	05010593          	addi	a1,sp,80
    80000a1c:	00001517          	auipc	a0,0x1
    80000a20:	bb450513          	addi	a0,a0,-1100 # 800015d0 <_etext+0x454>
    80000a24:	00001797          	auipc	a5,0x1
    80000a28:	d607aa23          	sw	zero,-652(a5) # 80001798 <pass>
    80000a2c:	444000ef          	jal	ra,80000e70 <printf>
    80000a30:	00001517          	auipc	a0,0x1
    80000a34:	bc050513          	addi	a0,a0,-1088 # 800015f0 <_etext+0x474>
    80000a38:	438000ef          	jal	ra,80000e70 <printf>
    80000a3c:	000a2583          	lw	a1,0(s4)
    80000a40:	00001517          	auipc	a0,0x1
    80000a44:	be850513          	addi	a0,a0,-1048 # 80001628 <_etext+0x4ac>
    80000a48:	428000ef          	jal	ra,80000e70 <printf>
    80000a4c:	00001517          	auipc	a0,0x1
    80000a50:	bf450513          	addi	a0,a0,-1036 # 80001640 <_etext+0x4c4>
    80000a54:	41c000ef          	jal	ra,80000e70 <printf>
    80000a58:	00001797          	auipc	a5,0x1
    80000a5c:	d407a783          	lw	a5,-704(a5) # 80001798 <pass>
    80000a60:	00000597          	auipc	a1,0x0
    80000a64:	72058593          	addi	a1,a1,1824 # 80001180 <_etext+0x4>
    80000a68:	00079663          	bnez	a5,80000a74 <main+0x8fc>
    80000a6c:	00000597          	auipc	a1,0x0
    80000a70:	71c58593          	addi	a1,a1,1820 # 80001188 <_etext+0xc>
    80000a74:	000a3603          	ld	a2,0(s4)
    80000a78:	000d77b7          	lui	a5,0xd7
    80000a7c:	1047879b          	addiw	a5,a5,260 # d7104 <_entry_offset+0xd7104>
    80000a80:	02c7c63b          	divw	a2,a5,a2
    80000a84:	00001517          	auipc	a0,0x1
    80000a88:	bf450513          	addi	a0,a0,-1036 # 80001678 <_etext+0x4fc>
    80000a8c:	3e4000ef          	jal	ra,80000e70 <printf>
    80000a90:	00001517          	auipc	a0,0x1
    80000a94:	c0850513          	addi	a0,a0,-1016 # 80001698 <_etext+0x51c>
    80000a98:	3d8000ef          	jal	ra,80000e70 <printf>
    80000a9c:	0d813083          	ld	ra,216(sp)
    80000aa0:	0d013403          	ld	s0,208(sp)
    80000aa4:	0c813483          	ld	s1,200(sp)
    80000aa8:	0c013903          	ld	s2,192(sp)
    80000aac:	0b813983          	ld	s3,184(sp)
    80000ab0:	0b013a03          	ld	s4,176(sp)
    80000ab4:	0a813a83          	ld	s5,168(sp)
    80000ab8:	0a013b03          	ld	s6,160(sp)
    80000abc:	09813b83          	ld	s7,152(sp)
    80000ac0:	09013c03          	ld	s8,144(sp)
    80000ac4:	08813c83          	ld	s9,136(sp)
    80000ac8:	08013d03          	ld	s10,128(sp)
    80000acc:	07813d83          	ld	s11,120(sp)
    80000ad0:	00000513          	li	a0,0
    80000ad4:	0e010113          	addi	sp,sp,224
    80000ad8:	00008067          	ret
    80000adc:	00f98023          	sb	a5,0(s3)
    80000ae0:	00100713          	li	a4,1
    80000ae4:	911ff06f          	j	800003f4 <main+0x27c>
    80000ae8:	00100693          	li	a3,1
    80000aec:	00078b93          	mv	s7,a5
    80000af0:	869ff06f          	j	80000358 <main+0x1e0>
    80000af4:	00d00793          	li	a5,13
    80000af8:	00100613          	li	a2,1
    80000afc:	955ff06f          	j	80000450 <main+0x2d8>

0000000080000b00 <__am_timer_config>:
    80000b00:	00100793          	li	a5,1
    80000b04:	00f50023          	sb	a5,0(a0)
    80000b08:	00f500a3          	sb	a5,1(a0)
    80000b0c:	00008067          	ret

0000000080000b10 <__am_input_config>:
    80000b10:	00100793          	li	a5,1
    80000b14:	00f50023          	sb	a5,0(a0)
    80000b18:	00008067          	ret

0000000080000b1c <__am_uart_config>:
    80000b1c:	00050023          	sb	zero,0(a0)
    80000b20:	00008067          	ret

0000000080000b24 <__am_net_config>:
    80000b24:	00050023          	sb	zero,0(a0)
    80000b28:	00008067          	ret

0000000080000b2c <fail>:
    80000b2c:	ff010113          	addi	sp,sp,-16
    80000b30:	00813023          	sd	s0,0(sp)
    80000b34:	00113423          	sd	ra,8(sp)
    80000b38:	00001417          	auipc	s0,0x1
    80000b3c:	ba040413          	addi	s0,s0,-1120 # 800016d8 <_etext+0x55c>
    80000b40:	04100513          	li	a0,65
    80000b44:	00140413          	addi	s0,s0,1
    80000b48:	2ec000ef          	jal	ra,80000e34 <putch>
    80000b4c:	00044503          	lbu	a0,0(s0)
    80000b50:	fe051ae3          	bnez	a0,80000b44 <fail+0x18>
    80000b54:	00001417          	auipc	s0,0x1
    80000b58:	b9440413          	addi	s0,s0,-1132 # 800016e8 <_etext+0x56c>
    80000b5c:	06100513          	li	a0,97
    80000b60:	00140413          	addi	s0,s0,1
    80000b64:	2d0000ef          	jal	ra,80000e34 <putch>
    80000b68:	00044503          	lbu	a0,0(s0)
    80000b6c:	fe051ae3          	bnez	a0,80000b60 <fail+0x34>
    80000b70:	00001417          	auipc	s0,0x1
    80000b74:	b9840413          	addi	s0,s0,-1128 # 80001708 <_etext+0x58c>
    80000b78:	02000513          	li	a0,32
    80000b7c:	00140413          	addi	s0,s0,1
    80000b80:	2b4000ef          	jal	ra,80000e34 <putch>
    80000b84:	00044503          	lbu	a0,0(s0)
    80000b88:	fe051ae3          	bnez	a0,80000b7c <fail+0x50>
    80000b8c:	00100513          	li	a0,1
    80000b90:	2b4000ef          	jal	ra,80000e44 <halt>

0000000080000b94 <ioe_init>:
    80000b94:	ff010113          	addi	sp,sp,-16
    80000b98:	00113423          	sd	ra,8(sp)
    80000b9c:	00001797          	auipc	a5,0x1
    80000ba0:	c0478793          	addi	a5,a5,-1020 # 800017a0 <lut>
    80000ba4:	00001697          	auipc	a3,0x1
    80000ba8:	ffc68693          	addi	a3,a3,-4 # 80001ba0 <Arr_1_Glob>
    80000bac:	00000617          	auipc	a2,0x0
    80000bb0:	f8060613          	addi	a2,a2,-128 # 80000b2c <fail>
    80000bb4:	00c0006f          	j	80000bc0 <ioe_init+0x2c>
    80000bb8:	00878793          	addi	a5,a5,8
    80000bbc:	00d78c63          	beq	a5,a3,80000bd4 <ioe_init+0x40>
    80000bc0:	0007b703          	ld	a4,0(a5)
    80000bc4:	fe071ae3          	bnez	a4,80000bb8 <ioe_init+0x24>
    80000bc8:	00c7b023          	sd	a2,0(a5)
    80000bcc:	00878793          	addi	a5,a5,8
    80000bd0:	fed798e3          	bne	a5,a3,80000bc0 <ioe_init+0x2c>
    80000bd4:	0dc000ef          	jal	ra,80000cb0 <__am_gpu_init>
    80000bd8:	034000ef          	jal	ra,80000c0c <__am_timer_init>
    80000bdc:	22c000ef          	jal	ra,80000e08 <__am_audio_init>
    80000be0:	00813083          	ld	ra,8(sp)
    80000be4:	00100513          	li	a0,1
    80000be8:	01010113          	addi	sp,sp,16
    80000bec:	00008067          	ret

0000000080000bf0 <ioe_read>:
    80000bf0:	00351513          	slli	a0,a0,0x3
    80000bf4:	00001797          	auipc	a5,0x1
    80000bf8:	bac78793          	addi	a5,a5,-1108 # 800017a0 <lut>
    80000bfc:	00a787b3          	add	a5,a5,a0
    80000c00:	0007b783          	ld	a5,0(a5)
    80000c04:	00058513          	mv	a0,a1
    80000c08:	00078067          	jr	a5

0000000080000c0c <__am_timer_init>:
    80000c0c:	00500793          	li	a5,5
    80000c10:	01d79793          	slli	a5,a5,0x1d
    80000c14:	0487b783          	ld	a5,72(a5)
    80000c18:	00004717          	auipc	a4,0x4
    80000c1c:	baf73023          	sd	a5,-1120(a4) # 800047b8 <init_time>
    80000c20:	00008067          	ret

0000000080000c24 <__am_timer_uptime>:
    80000c24:	00500713          	li	a4,5
    80000c28:	01d71713          	slli	a4,a4,0x1d
    80000c2c:	04872783          	lw	a5,72(a4)
    80000c30:	04c72703          	lw	a4,76(a4)
    80000c34:	00004697          	auipc	a3,0x4
    80000c38:	b846b683          	ld	a3,-1148(a3) # 800047b8 <init_time>
    80000c3c:	02079793          	slli	a5,a5,0x20
    80000c40:	0207d793          	srli	a5,a5,0x20
    80000c44:	40d787b3          	sub	a5,a5,a3
    80000c48:	02071713          	slli	a4,a4,0x20
    80000c4c:	00e787b3          	add	a5,a5,a4
    80000c50:	00f53023          	sd	a5,0(a0)
    80000c54:	00008067          	ret

0000000080000c58 <__am_timer_rtc>:
    80000c58:	76c00793          	li	a5,1900
    80000c5c:	00052a23          	sw	zero,20(a0)
    80000c60:	00052823          	sw	zero,16(a0)
    80000c64:	00052623          	sw	zero,12(a0)
    80000c68:	00052423          	sw	zero,8(a0)
    80000c6c:	00052223          	sw	zero,4(a0)
    80000c70:	00f52023          	sw	a5,0(a0)
    80000c74:	00008067          	ret

0000000080000c78 <__am_input_keybrd>:
    80000c78:	00500793          	li	a5,5
    80000c7c:	01d79793          	slli	a5,a5,0x1d
    80000c80:	0607a783          	lw	a5,96(a5)
    80000c84:	00050023          	sb	zero,0(a0)
    80000c88:	00f7d713          	srli	a4,a5,0xf
    80000c8c:	00f52223          	sw	a5,4(a0)
    80000c90:	00177713          	andi	a4,a4,1
    80000c94:	00070c63          	beqz	a4,80000cac <__am_input_keybrd+0x34>
    80000c98:	03479793          	slli	a5,a5,0x34
    80000c9c:	0347d793          	srli	a5,a5,0x34
    80000ca0:	00100713          	li	a4,1
    80000ca4:	00e50023          	sb	a4,0(a0)
    80000ca8:	00f52223          	sw	a5,4(a0)
    80000cac:	00008067          	ret

0000000080000cb0 <__am_gpu_init>:
    80000cb0:	00500793          	li	a5,5
    80000cb4:	01d79793          	slli	a5,a5,0x1d
    80000cb8:	1027d683          	lhu	a3,258(a5)
    80000cbc:	1007d783          	lhu	a5,256(a5)
    80000cc0:	02f686bb          	mulw	a3,a3,a5
    80000cc4:	02068063          	beqz	a3,80000ce4 <__am_gpu_init+0x34>
    80000cc8:	0a100713          	li	a4,161
    80000ccc:	01871713          	slli	a4,a4,0x18
    80000cd0:	00000793          	li	a5,0
    80000cd4:	00f72023          	sw	a5,0(a4)
    80000cd8:	0017879b          	addiw	a5,a5,1
    80000cdc:	00470713          	addi	a4,a4,4
    80000ce0:	fed79ae3          	bne	a5,a3,80000cd4 <__am_gpu_init+0x24>
    80000ce4:	00500793          	li	a5,5
    80000ce8:	01d79793          	slli	a5,a5,0x1d
    80000cec:	00100713          	li	a4,1
    80000cf0:	10e7a223          	sw	a4,260(a5)
    80000cf4:	00008067          	ret

0000000080000cf8 <__am_gpu_config>:
    80000cf8:	00500793          	li	a5,5
    80000cfc:	01d79793          	slli	a5,a5,0x1d
    80000d00:	1027d703          	lhu	a4,258(a5)
    80000d04:	1007d783          	lhu	a5,256(a5)
    80000d08:	00100693          	li	a3,1
    80000d0c:	00d51023          	sh	a3,0(a0)
    80000d10:	00e52223          	sw	a4,4(a0)
    80000d14:	00f52423          	sw	a5,8(a0)
    80000d18:	00052623          	sw	zero,12(a0)
    80000d1c:	00008067          	ret

0000000080000d20 <__am_gpu_fbdraw>:
    80000d20:	fe010113          	addi	sp,sp,-32
    80000d24:	00813823          	sd	s0,16(sp)
    80000d28:	00010593          	mv	a1,sp
    80000d2c:	00050413          	mv	s0,a0
    80000d30:	00900513          	li	a0,9
    80000d34:	00113c23          	sd	ra,24(sp)
    80000d38:	eb9ff0ef          	jal	ra,80000bf0 <ioe_read>
    80000d3c:	01442783          	lw	a5,20(s0)
    80000d40:	00412303          	lw	t1,4(sp)
    80000d44:	00812803          	lw	a6,8(sp)
    80000d48:	08f05663          	blez	a5,80000dd4 <__am_gpu_fbdraw+0xb4>
    80000d4c:	01042683          	lw	a3,16(s0)
    80000d50:	00000513          	li	a0,0
    80000d54:	a1000e37          	lui	t3,0xa1000
    80000d58:	00000713          	li	a4,0
    80000d5c:	00000613          	li	a2,0
    80000d60:	06d05663          	blez	a3,80000dcc <__am_gpu_fbdraw+0xac>
    80000d64:	00442783          	lw	a5,4(s0)
    80000d68:	00a785bb          	addw	a1,a5,a0
    80000d6c:	00058793          	mv	a5,a1
    80000d70:	0505d663          	bge	a1,a6,80000dbc <__am_gpu_fbdraw+0x9c>
    80000d74:	00042583          	lw	a1,0(s0)
    80000d78:	00c588bb          	addw	a7,a1,a2
    80000d7c:	0468d063          	bge	a7,t1,80000dbc <__am_gpu_fbdraw+0x9c>
    80000d80:	02a686bb          	mulw	a3,a3,a0
    80000d84:	00843883          	ld	a7,8(s0)
    80000d88:	026787bb          	mulw	a5,a5,t1
    80000d8c:	00e686b3          	add	a3,a3,a4
    80000d90:	00269693          	slli	a3,a3,0x2
    80000d94:	00d886b3          	add	a3,a7,a3
    80000d98:	0006a683          	lw	a3,0(a3)
    80000d9c:	00b787bb          	addw	a5,a5,a1
    80000da0:	00c787bb          	addw	a5,a5,a2
    80000da4:	0027979b          	slliw	a5,a5,0x2
    80000da8:	01c787bb          	addw	a5,a5,t3
    80000dac:	02079793          	slli	a5,a5,0x20
    80000db0:	0207d793          	srli	a5,a5,0x20
    80000db4:	00d7a023          	sw	a3,0(a5)
    80000db8:	01042683          	lw	a3,16(s0)
    80000dbc:	00170713          	addi	a4,a4,1
    80000dc0:	0007061b          	sext.w	a2,a4
    80000dc4:	fad640e3          	blt	a2,a3,80000d64 <__am_gpu_fbdraw+0x44>
    80000dc8:	01442783          	lw	a5,20(s0)
    80000dcc:	0015051b          	addiw	a0,a0,1
    80000dd0:	f8f544e3          	blt	a0,a5,80000d58 <__am_gpu_fbdraw+0x38>
    80000dd4:	01844783          	lbu	a5,24(s0)
    80000dd8:	00078a63          	beqz	a5,80000dec <__am_gpu_fbdraw+0xcc>
    80000ddc:	00500793          	li	a5,5
    80000de0:	01d79793          	slli	a5,a5,0x1d
    80000de4:	00100713          	li	a4,1
    80000de8:	10e7a223          	sw	a4,260(a5)
    80000dec:	01813083          	ld	ra,24(sp)
    80000df0:	01013403          	ld	s0,16(sp)
    80000df4:	02010113          	addi	sp,sp,32
    80000df8:	00008067          	ret

0000000080000dfc <__am_gpu_status>:
    80000dfc:	00100793          	li	a5,1
    80000e00:	00f50023          	sb	a5,0(a0)
    80000e04:	00008067          	ret

0000000080000e08 <__am_audio_init>:
    80000e08:	00008067          	ret

0000000080000e0c <__am_audio_config>:
    80000e0c:	00050023          	sb	zero,0(a0)
    80000e10:	00008067          	ret

0000000080000e14 <__am_audio_ctrl>:
    80000e14:	00008067          	ret

0000000080000e18 <__am_audio_status>:
    80000e18:	00052023          	sw	zero,0(a0)
    80000e1c:	00008067          	ret

0000000080000e20 <__am_audio_play>:
    80000e20:	00008067          	ret

0000000080000e24 <__am_disk_config>:
    80000e24:	00050023          	sb	zero,0(a0)
    80000e28:	00008067          	ret

0000000080000e2c <__am_disk_status>:
    80000e2c:	00008067          	ret

0000000080000e30 <__am_disk_blkio>:
    80000e30:	00008067          	ret

0000000080000e34 <putch>:
    80000e34:	00500793          	li	a5,5
    80000e38:	01d79793          	slli	a5,a5,0x1d
    80000e3c:	3ea78c23          	sb	a0,1016(a5)
    80000e40:	00008067          	ret

0000000080000e44 <halt>:
    80000e44:	00050513          	mv	a0,a0
    80000e48:	00100073          	ebreak
    80000e4c:	0000006f          	j	80000e4c <halt+0x8>

0000000080000e50 <_trm_init>:
    80000e50:	ff010113          	addi	sp,sp,-16
    80000e54:	00001517          	auipc	a0,0x1
    80000e58:	93450513          	addi	a0,a0,-1740 # 80001788 <mainargs>
    80000e5c:	00113423          	sd	ra,8(sp)
    80000e60:	b18ff0ef          	jal	ra,80000178 <main>
    80000e64:	00050513          	mv	a0,a0
    80000e68:	00100073          	ebreak
    80000e6c:	0000006f          	j	80000e6c <_trm_init+0x1c>

0000000080000e70 <printf>:
    80000e70:	f1010113          	addi	sp,sp,-240
    80000e74:	09213823          	sd	s2,144(sp)
    80000e78:	0a113423          	sd	ra,168(sp)
    80000e7c:	0a813023          	sd	s0,160(sp)
    80000e80:	08913c23          	sd	s1,152(sp)
    80000e84:	09313423          	sd	s3,136(sp)
    80000e88:	09413023          	sd	s4,128(sp)
    80000e8c:	07513c23          	sd	s5,120(sp)
    80000e90:	07613823          	sd	s6,112(sp)
    80000e94:	00050913          	mv	s2,a0
    80000e98:	00054503          	lbu	a0,0(a0)
    80000e9c:	0cf13c23          	sd	a5,216(sp)
    80000ea0:	0b810793          	addi	a5,sp,184
    80000ea4:	0ab13c23          	sd	a1,184(sp)
    80000ea8:	0cc13023          	sd	a2,192(sp)
    80000eac:	0cd13423          	sd	a3,200(sp)
    80000eb0:	0ce13823          	sd	a4,208(sp)
    80000eb4:	0f013023          	sd	a6,224(sp)
    80000eb8:	0f113423          	sd	a7,232(sp)
    80000ebc:	00f13023          	sd	a5,0(sp)
    80000ec0:	02050e63          	beqz	a0,80000efc <printf+0x8c>
    80000ec4:	00000413          	li	s0,0
    80000ec8:	02500993          	li	s3,37
    80000ecc:	07300a13          	li	s4,115
    80000ed0:	06400a93          	li	s5,100
    80000ed4:	0d351e63          	bne	a0,s3,80000fb0 <printf+0x140>
    80000ed8:	0014041b          	addiw	s0,s0,1
    80000edc:	00890b33          	add	s6,s2,s0
    80000ee0:	000b4783          	lbu	a5,0(s6)
    80000ee4:	05478263          	beq	a5,s4,80000f28 <printf+0xb8>
    80000ee8:	07578a63          	beq	a5,s5,80000f5c <printf+0xec>
    80000eec:	0014041b          	addiw	s0,s0,1
    80000ef0:	008907b3          	add	a5,s2,s0
    80000ef4:	0007c503          	lbu	a0,0(a5)
    80000ef8:	fc051ee3          	bnez	a0,80000ed4 <printf+0x64>
    80000efc:	0a813083          	ld	ra,168(sp)
    80000f00:	0a013403          	ld	s0,160(sp)
    80000f04:	09813483          	ld	s1,152(sp)
    80000f08:	09013903          	ld	s2,144(sp)
    80000f0c:	08813983          	ld	s3,136(sp)
    80000f10:	08013a03          	ld	s4,128(sp)
    80000f14:	07813a83          	ld	s5,120(sp)
    80000f18:	07013b03          	ld	s6,112(sp)
    80000f1c:	00000513          	li	a0,0
    80000f20:	0f010113          	addi	sp,sp,240
    80000f24:	00008067          	ret
    80000f28:	00013783          	ld	a5,0(sp)
    80000f2c:	0007b483          	ld	s1,0(a5)
    80000f30:	00878793          	addi	a5,a5,8
    80000f34:	00f13023          	sd	a5,0(sp)
    80000f38:	0004c503          	lbu	a0,0(s1)
    80000f3c:	fa0508e3          	beqz	a0,80000eec <printf+0x7c>
    80000f40:	00148493          	addi	s1,s1,1
    80000f44:	00148493          	addi	s1,s1,1
    80000f48:	eedff0ef          	jal	ra,80000e34 <putch>
    80000f4c:	fff4c503          	lbu	a0,-1(s1)
    80000f50:	fe051ae3          	bnez	a0,80000f44 <printf+0xd4>
    80000f54:	000b4783          	lbu	a5,0(s6)
    80000f58:	f9579ae3          	bne	a5,s5,80000eec <printf+0x7c>
    80000f5c:	00013783          	ld	a5,0(sp)
    80000f60:	00013423          	sd	zero,8(sp)
    80000f64:	00013823          	sd	zero,16(sp)
    80000f68:	0007a503          	lw	a0,0(a5)
    80000f6c:	00878793          	addi	a5,a5,8
    80000f70:	00013c23          	sd	zero,24(sp)
    80000f74:	02013023          	sd	zero,32(sp)
    80000f78:	02013423          	sd	zero,40(sp)
    80000f7c:	02013823          	sd	zero,48(sp)
    80000f80:	02013c23          	sd	zero,56(sp)
    80000f84:	04013023          	sd	zero,64(sp)
    80000f88:	04013423          	sd	zero,72(sp)
    80000f8c:	04013823          	sd	zero,80(sp)
    80000f90:	04013c23          	sd	zero,88(sp)
    80000f94:	06013023          	sd	zero,96(sp)
    80000f98:	06012423          	sw	zero,104(sp)
    80000f9c:	00f13023          	sd	a5,0(sp)
    80000fa0:	00051c63          	bnez	a0,80000fb8 <printf+0x148>
    80000fa4:	03000513          	li	a0,48
    80000fa8:	e8dff0ef          	jal	ra,80000e34 <putch>
    80000fac:	f41ff06f          	j	80000eec <printf+0x7c>
    80000fb0:	e85ff0ef          	jal	ra,80000e34 <putch>
    80000fb4:	f39ff06f          	j	80000eec <printf+0x7c>
    80000fb8:	00a00613          	li	a2,10
    80000fbc:	00810593          	addi	a1,sp,8
    80000fc0:	0b0000ef          	jal	ra,80001070 <itoa>
    80000fc4:	00814503          	lbu	a0,8(sp)
    80000fc8:	00910493          	addi	s1,sp,9
    80000fcc:	f20500e3          	beqz	a0,80000eec <printf+0x7c>
    80000fd0:	00148493          	addi	s1,s1,1
    80000fd4:	e61ff0ef          	jal	ra,80000e34 <putch>
    80000fd8:	fff4c503          	lbu	a0,-1(s1)
    80000fdc:	fe051ae3          	bnez	a0,80000fd0 <printf+0x160>
    80000fe0:	f0dff06f          	j	80000eec <printf+0x7c>

0000000080000fe4 <strcpy>:
    80000fe4:	0005c703          	lbu	a4,0(a1)
    80000fe8:	02070663          	beqz	a4,80001014 <strcpy+0x30>
    80000fec:	00000793          	li	a5,0
    80000ff0:	00f506b3          	add	a3,a0,a5
    80000ff4:	00178793          	addi	a5,a5,1
    80000ff8:	00e68023          	sb	a4,0(a3)
    80000ffc:	00f58733          	add	a4,a1,a5
    80001000:	00074703          	lbu	a4,0(a4)
    80001004:	fe0716e3          	bnez	a4,80000ff0 <strcpy+0xc>
    80001008:	00f507b3          	add	a5,a0,a5
    8000100c:	00078023          	sb	zero,0(a5)
    80001010:	00008067          	ret
    80001014:	00050793          	mv	a5,a0
    80001018:	00078023          	sb	zero,0(a5)
    8000101c:	00008067          	ret

0000000080001020 <strcmp>:
    80001020:	00054703          	lbu	a4,0(a0)
    80001024:	02070e63          	beqz	a4,80001060 <strcmp+0x40>
    80001028:	00000793          	li	a5,0
    8000102c:	00c0006f          	j	80001038 <strcmp+0x18>
    80001030:	00064703          	lbu	a4,0(a2)
    80001034:	02070463          	beqz	a4,8000105c <strcmp+0x3c>
    80001038:	00f586b3          	add	a3,a1,a5
    8000103c:	0006c683          	lbu	a3,0(a3)
    80001040:	00178793          	addi	a5,a5,1
    80001044:	00f50633          	add	a2,a0,a5
    80001048:	fee684e3          	beq	a3,a4,80001030 <strcmp+0x10>
    8000104c:	fff00513          	li	a0,-1
    80001050:	00d76e63          	bltu	a4,a3,8000106c <strcmp+0x4c>
    80001054:	00100513          	li	a0,1
    80001058:	00008067          	ret
    8000105c:	00f585b3          	add	a1,a1,a5
    80001060:	0005c503          	lbu	a0,0(a1)
    80001064:	00a03533          	snez	a0,a0
    80001068:	40a00533          	neg	a0,a0
    8000106c:	00008067          	ret

0000000080001070 <itoa>:
    80001070:	00000797          	auipc	a5,0x0
    80001074:	6f078793          	addi	a5,a5,1776 # 80001760 <_etext+0x5e4>
    80001078:	0007be03          	ld	t3,0(a5)
    8000107c:	0087b303          	ld	t1,8(a5)
    80001080:	0107b883          	ld	a7,16(a5)
    80001084:	0187b803          	ld	a6,24(a5)
    80001088:	0207a683          	lw	a3,32(a5)
    8000108c:	0247c703          	lbu	a4,36(a5)
    80001090:	f7010113          	addi	sp,sp,-144
    80001094:	00050793          	mv	a5,a0
    80001098:	01c13023          	sd	t3,0(sp)
    8000109c:	00613423          	sd	t1,8(sp)
    800010a0:	01113823          	sd	a7,16(sp)
    800010a4:	01013c23          	sd	a6,24(sp)
    800010a8:	02d12023          	sw	a3,32(sp)
    800010ac:	02e10223          	sb	a4,36(sp)
    800010b0:	02013423          	sd	zero,40(sp)
    800010b4:	02013823          	sd	zero,48(sp)
    800010b8:	02013c23          	sd	zero,56(sp)
    800010bc:	04013023          	sd	zero,64(sp)
    800010c0:	04013423          	sd	zero,72(sp)
    800010c4:	04013823          	sd	zero,80(sp)
    800010c8:	04013c23          	sd	zero,88(sp)
    800010cc:	06013023          	sd	zero,96(sp)
    800010d0:	06013423          	sd	zero,104(sp)
    800010d4:	06013823          	sd	zero,112(sp)
    800010d8:	06013c23          	sd	zero,120(sp)
    800010dc:	08013023          	sd	zero,128(sp)
    800010e0:	08012423          	sw	zero,136(sp)
    800010e4:	00058513          	mv	a0,a1
    800010e8:	0607c863          	bltz	a5,80001158 <itoa+0xe8>
    800010ec:	00058713          	mv	a4,a1
    800010f0:	06078e63          	beqz	a5,8000116c <itoa+0xfc>
    800010f4:	02810893          	addi	a7,sp,40
    800010f8:	00000813          	li	a6,0
    800010fc:	02c7e6bb          	remw	a3,a5,a2
    80001100:	00188893          	addi	a7,a7,1
    80001104:	00080313          	mv	t1,a6
    80001108:	0018081b          	addiw	a6,a6,1
    8000110c:	02c7c7bb          	divw	a5,a5,a2
    80001110:	09068693          	addi	a3,a3,144
    80001114:	002686b3          	add	a3,a3,sp
    80001118:	f706c683          	lbu	a3,-144(a3)
    8000111c:	fed88fa3          	sb	a3,-1(a7)
    80001120:	fcf04ee3          	bgtz	a5,800010fc <itoa+0x8c>
    80001124:	0013061b          	addiw	a2,t1,1
    80001128:	02810793          	addi	a5,sp,40
    8000112c:	006787b3          	add	a5,a5,t1
    80001130:	00c70633          	add	a2,a4,a2
    80001134:	0080006f          	j	8000113c <itoa+0xcc>
    80001138:	0007c683          	lbu	a3,0(a5)
    8000113c:	00d70023          	sb	a3,0(a4)
    80001140:	00170713          	addi	a4,a4,1
    80001144:	fff78793          	addi	a5,a5,-1
    80001148:	fec718e3          	bne	a4,a2,80001138 <itoa+0xc8>
    8000114c:	00060023          	sb	zero,0(a2)
    80001150:	09010113          	addi	sp,sp,144
    80001154:	00008067          	ret
    80001158:	02d00713          	li	a4,45
    8000115c:	00e58023          	sb	a4,0(a1)
    80001160:	40f007bb          	negw	a5,a5
    80001164:	00158713          	addi	a4,a1,1
    80001168:	f8dff06f          	j	800010f4 <itoa+0x84>
    8000116c:	00058613          	mv	a2,a1
    80001170:	00060023          	sb	zero,0(a2)
    80001174:	09010113          	addi	sp,sp,144
    80001178:	00008067          	ret
