
/home/lixinbao/ysyx-workbench/am-kernels/tests/cpu-tests/build/hello-str-riscv64-nemu.elf：     文件格式 elf64-littleriscv


Disassembly of section .text:

0000000080000000 <_start>:
    80000000:	00000413          	li	s0,0
    80000004:	00009117          	auipc	sp,0x9
    80000008:	ffc10113          	addi	sp,sp,-4 # 80009000 <_end>
    8000000c:	0e8000ef          	jal	ra,800000f4 <_trm_init>

0000000080000010 <check>:
    80000010:	00050463          	beqz	a0,80000018 <check+0x8>
    80000014:	00008067          	ret
    80000018:	ff010113          	addi	sp,sp,-16
    8000001c:	00100513          	li	a0,1
    80000020:	00113423          	sd	ra,8(sp)
    80000024:	0c4000ef          	jal	ra,800000e8 <halt>

0000000080000028 <main>:
    80000028:	ff010113          	addi	sp,sp,-16
    8000002c:	00813023          	sd	s0,0(sp)
    80000030:	00000417          	auipc	s0,0x0
    80000034:	46840413          	addi	s0,s0,1128 # 80000498 <buf>
    80000038:	00000617          	auipc	a2,0x0
    8000003c:	3e860613          	addi	a2,a2,1000 # 80000420 <_etext+0x4>
    80000040:	00000597          	auipc	a1,0x0
    80000044:	3f058593          	addi	a1,a1,1008 # 80000430 <_etext+0x14>
    80000048:	00040513          	mv	a0,s0
    8000004c:	00113423          	sd	ra,8(sp)
    80000050:	0c4000ef          	jal	ra,80000114 <sprintf>
    80000054:	00000597          	auipc	a1,0x0
    80000058:	3cc58593          	addi	a1,a1,972 # 80000420 <_etext+0x4>
    8000005c:	00040513          	mv	a0,s0
    80000060:	260000ef          	jal	ra,800002c0 <strcmp>
    80000064:	00153513          	seqz	a0,a0
    80000068:	fa9ff0ef          	jal	ra,80000010 <check>
    8000006c:	00200713          	li	a4,2
    80000070:	00100693          	li	a3,1
    80000074:	00100613          	li	a2,1
    80000078:	00000597          	auipc	a1,0x0
    8000007c:	3c058593          	addi	a1,a1,960 # 80000438 <_etext+0x1c>
    80000080:	00040513          	mv	a0,s0
    80000084:	090000ef          	jal	ra,80000114 <sprintf>
    80000088:	00000597          	auipc	a1,0x0
    8000008c:	3c058593          	addi	a1,a1,960 # 80000448 <_etext+0x2c>
    80000090:	00040513          	mv	a0,s0
    80000094:	22c000ef          	jal	ra,800002c0 <strcmp>
    80000098:	00153513          	seqz	a0,a0
    8000009c:	f75ff0ef          	jal	ra,80000010 <check>
    800000a0:	00c00713          	li	a4,12
    800000a4:	00a00693          	li	a3,10
    800000a8:	00200613          	li	a2,2
    800000ac:	00000597          	auipc	a1,0x0
    800000b0:	38c58593          	addi	a1,a1,908 # 80000438 <_etext+0x1c>
    800000b4:	00040513          	mv	a0,s0
    800000b8:	05c000ef          	jal	ra,80000114 <sprintf>
    800000bc:	00000597          	auipc	a1,0x0
    800000c0:	39c58593          	addi	a1,a1,924 # 80000458 <_etext+0x3c>
    800000c4:	00040513          	mv	a0,s0
    800000c8:	1f8000ef          	jal	ra,800002c0 <strcmp>
    800000cc:	00153513          	seqz	a0,a0
    800000d0:	f41ff0ef          	jal	ra,80000010 <check>
    800000d4:	00813083          	ld	ra,8(sp)
    800000d8:	00013403          	ld	s0,0(sp)
    800000dc:	00000513          	li	a0,0
    800000e0:	01010113          	addi	sp,sp,16
    800000e4:	00008067          	ret

00000000800000e8 <halt>:
    800000e8:	00050513          	mv	a0,a0
    800000ec:	00100073          	ebreak
    800000f0:	0000006f          	j	800000f0 <halt+0x8>

00000000800000f4 <_trm_init>:
    800000f4:	ff010113          	addi	sp,sp,-16
    800000f8:	00000517          	auipc	a0,0x0
    800000fc:	39850513          	addi	a0,a0,920 # 80000490 <mainargs>
    80000100:	00113423          	sd	ra,8(sp)
    80000104:	f25ff0ef          	jal	ra,80000028 <main>
    80000108:	00050513          	mv	a0,a0
    8000010c:	00100073          	ebreak
    80000110:	0000006f          	j	80000110 <_trm_init+0x1c>

0000000080000114 <sprintf>:
    80000114:	f2010113          	addi	sp,sp,-224
    80000118:	09213823          	sd	s2,144(sp)
    8000011c:	0a113423          	sd	ra,168(sp)
    80000120:	0a813023          	sd	s0,160(sp)
    80000124:	08913c23          	sd	s1,152(sp)
    80000128:	09313423          	sd	s3,136(sp)
    8000012c:	09413023          	sd	s4,128(sp)
    80000130:	07513c23          	sd	s5,120(sp)
    80000134:	07613823          	sd	s6,112(sp)
    80000138:	0005c303          	lbu	t1,0(a1)
    8000013c:	0cf13423          	sd	a5,200(sp)
    80000140:	0b010793          	addi	a5,sp,176
    80000144:	0ac13823          	sd	a2,176(sp)
    80000148:	0ad13c23          	sd	a3,184(sp)
    8000014c:	0ce13023          	sd	a4,192(sp)
    80000150:	0d013823          	sd	a6,208(sp)
    80000154:	0d113c23          	sd	a7,216(sp)
    80000158:	00f13023          	sd	a5,0(sp)
    8000015c:	00050913          	mv	s2,a0
    80000160:	04030063          	beqz	t1,800001a0 <sprintf+0x8c>
    80000164:	00058993          	mv	s3,a1
    80000168:	00000493          	li	s1,0
    8000016c:	00000413          	li	s0,0
    80000170:	02500a13          	li	s4,37
    80000174:	07300a93          	li	s5,115
    80000178:	06400b13          	li	s6,100
    8000017c:	05430a63          	beq	t1,s4,800001d0 <sprintf+0xbc>
    80000180:	009907b3          	add	a5,s2,s1
    80000184:	00678023          	sb	t1,0(a5)
    80000188:	0014849b          	addiw	s1,s1,1
    8000018c:	0014041b          	addiw	s0,s0,1
    80000190:	008987b3          	add	a5,s3,s0
    80000194:	0007c303          	lbu	t1,0(a5)
    80000198:	fe0312e3          	bnez	t1,8000017c <sprintf+0x68>
    8000019c:	00990933          	add	s2,s2,s1
    800001a0:	00090023          	sb	zero,0(s2)
    800001a4:	0a813083          	ld	ra,168(sp)
    800001a8:	0a013403          	ld	s0,160(sp)
    800001ac:	09813483          	ld	s1,152(sp)
    800001b0:	09013903          	ld	s2,144(sp)
    800001b4:	08813983          	ld	s3,136(sp)
    800001b8:	08013a03          	ld	s4,128(sp)
    800001bc:	07813a83          	ld	s5,120(sp)
    800001c0:	07013b03          	ld	s6,112(sp)
    800001c4:	00000513          	li	a0,0
    800001c8:	0e010113          	addi	sp,sp,224
    800001cc:	00008067          	ret
    800001d0:	0014041b          	addiw	s0,s0,1
    800001d4:	008985b3          	add	a1,s3,s0
    800001d8:	0005c783          	lbu	a5,0(a1)
    800001dc:	09578863          	beq	a5,s5,8000026c <sprintf+0x158>
    800001e0:	fb6796e3          	bne	a5,s6,8000018c <sprintf+0x78>
    800001e4:	00013783          	ld	a5,0(sp)
    800001e8:	00a00613          	li	a2,10
    800001ec:	00810593          	addi	a1,sp,8
    800001f0:	0007a503          	lw	a0,0(a5)
    800001f4:	00878793          	addi	a5,a5,8
    800001f8:	00013423          	sd	zero,8(sp)
    800001fc:	00013823          	sd	zero,16(sp)
    80000200:	00013c23          	sd	zero,24(sp)
    80000204:	02013023          	sd	zero,32(sp)
    80000208:	02013423          	sd	zero,40(sp)
    8000020c:	02013823          	sd	zero,48(sp)
    80000210:	02013c23          	sd	zero,56(sp)
    80000214:	04013023          	sd	zero,64(sp)
    80000218:	04013423          	sd	zero,72(sp)
    8000021c:	04013823          	sd	zero,80(sp)
    80000220:	04013c23          	sd	zero,88(sp)
    80000224:	06013023          	sd	zero,96(sp)
    80000228:	06012423          	sw	zero,104(sp)
    8000022c:	00f13023          	sd	a5,0(sp)
    80000230:	0e0000ef          	jal	ra,80000310 <itoa>
    80000234:	00814683          	lbu	a3,8(sp)
    80000238:	06068e63          	beqz	a3,800002b4 <sprintf+0x1a0>
    8000023c:	0014879b          	addiw	a5,s1,1
    80000240:	00f90633          	add	a2,s2,a5
    80000244:	0007859b          	sext.w	a1,a5
    80000248:	00178793          	addi	a5,a5,1
    8000024c:	40978733          	sub	a4,a5,s1
    80000250:	00810513          	addi	a0,sp,8
    80000254:	00e50733          	add	a4,a0,a4
    80000258:	fed60fa3          	sb	a3,-1(a2)
    8000025c:	fff74683          	lbu	a3,-1(a4)
    80000260:	fe0690e3          	bnez	a3,80000240 <sprintf+0x12c>
    80000264:	00058493          	mv	s1,a1
    80000268:	f25ff06f          	j	8000018c <sprintf+0x78>
    8000026c:	00013783          	ld	a5,0(sp)
    80000270:	0007b703          	ld	a4,0(a5)
    80000274:	00878793          	addi	a5,a5,8
    80000278:	00f13023          	sd	a5,0(sp)
    8000027c:	00074683          	lbu	a3,0(a4)
    80000280:	f00686e3          	beqz	a3,8000018c <sprintf+0x78>
    80000284:	0014879b          	addiw	a5,s1,1
    80000288:	00170713          	addi	a4,a4,1
    8000028c:	00f90633          	add	a2,s2,a5
    80000290:	fed60fa3          	sb	a3,-1(a2)
    80000294:	00074683          	lbu	a3,0(a4)
    80000298:	0007849b          	sext.w	s1,a5
    8000029c:	00170713          	addi	a4,a4,1
    800002a0:	00178793          	addi	a5,a5,1
    800002a4:	fe0694e3          	bnez	a3,8000028c <sprintf+0x178>
    800002a8:	0005c783          	lbu	a5,0(a1)
    800002ac:	ef6790e3          	bne	a5,s6,8000018c <sprintf+0x78>
    800002b0:	f35ff06f          	j	800001e4 <sprintf+0xd0>
    800002b4:	00048593          	mv	a1,s1
    800002b8:	00058493          	mv	s1,a1
    800002bc:	ed1ff06f          	j	8000018c <sprintf+0x78>

00000000800002c0 <strcmp>:
    800002c0:	00054703          	lbu	a4,0(a0)
    800002c4:	02070e63          	beqz	a4,80000300 <strcmp+0x40>
    800002c8:	00000793          	li	a5,0
    800002cc:	00c0006f          	j	800002d8 <strcmp+0x18>
    800002d0:	00064703          	lbu	a4,0(a2)
    800002d4:	02070463          	beqz	a4,800002fc <strcmp+0x3c>
    800002d8:	00f586b3          	add	a3,a1,a5
    800002dc:	0006c683          	lbu	a3,0(a3)
    800002e0:	00178793          	addi	a5,a5,1
    800002e4:	00f50633          	add	a2,a0,a5
    800002e8:	fee684e3          	beq	a3,a4,800002d0 <strcmp+0x10>
    800002ec:	fff00513          	li	a0,-1
    800002f0:	00d76e63          	bltu	a4,a3,8000030c <strcmp+0x4c>
    800002f4:	00100513          	li	a0,1
    800002f8:	00008067          	ret
    800002fc:	00f585b3          	add	a1,a1,a5
    80000300:	0005c503          	lbu	a0,0(a1)
    80000304:	00a03533          	snez	a0,a0
    80000308:	40a00533          	neg	a0,a0
    8000030c:	00008067          	ret

0000000080000310 <itoa>:
    80000310:	00000797          	auipc	a5,0x0
    80000314:	15878793          	addi	a5,a5,344 # 80000468 <_etext+0x4c>
    80000318:	0007be03          	ld	t3,0(a5)
    8000031c:	0087b303          	ld	t1,8(a5)
    80000320:	0107b883          	ld	a7,16(a5)
    80000324:	0187b803          	ld	a6,24(a5)
    80000328:	0207a683          	lw	a3,32(a5)
    8000032c:	0247c703          	lbu	a4,36(a5)
    80000330:	f7010113          	addi	sp,sp,-144
    80000334:	00050793          	mv	a5,a0
    80000338:	01c13023          	sd	t3,0(sp)
    8000033c:	00613423          	sd	t1,8(sp)
    80000340:	01113823          	sd	a7,16(sp)
    80000344:	01013c23          	sd	a6,24(sp)
    80000348:	02d12023          	sw	a3,32(sp)
    8000034c:	02e10223          	sb	a4,36(sp)
    80000350:	02013423          	sd	zero,40(sp)
    80000354:	02013823          	sd	zero,48(sp)
    80000358:	02013c23          	sd	zero,56(sp)
    8000035c:	04013023          	sd	zero,64(sp)
    80000360:	04013423          	sd	zero,72(sp)
    80000364:	04013823          	sd	zero,80(sp)
    80000368:	04013c23          	sd	zero,88(sp)
    8000036c:	06013023          	sd	zero,96(sp)
    80000370:	06013423          	sd	zero,104(sp)
    80000374:	06013823          	sd	zero,112(sp)
    80000378:	06013c23          	sd	zero,120(sp)
    8000037c:	08013023          	sd	zero,128(sp)
    80000380:	08012423          	sw	zero,136(sp)
    80000384:	00058513          	mv	a0,a1
    80000388:	0607c863          	bltz	a5,800003f8 <itoa+0xe8>
    8000038c:	00058713          	mv	a4,a1
    80000390:	06078e63          	beqz	a5,8000040c <itoa+0xfc>
    80000394:	02810893          	addi	a7,sp,40
    80000398:	00000813          	li	a6,0
    8000039c:	02c7e6bb          	remw	a3,a5,a2
    800003a0:	00188893          	addi	a7,a7,1
    800003a4:	00080313          	mv	t1,a6
    800003a8:	0018081b          	addiw	a6,a6,1
    800003ac:	02c7c7bb          	divw	a5,a5,a2
    800003b0:	09068693          	addi	a3,a3,144
    800003b4:	002686b3          	add	a3,a3,sp
    800003b8:	f706c683          	lbu	a3,-144(a3)
    800003bc:	fed88fa3          	sb	a3,-1(a7)
    800003c0:	fcf04ee3          	bgtz	a5,8000039c <itoa+0x8c>
    800003c4:	0013061b          	addiw	a2,t1,1
    800003c8:	02810793          	addi	a5,sp,40
    800003cc:	006787b3          	add	a5,a5,t1
    800003d0:	00c70633          	add	a2,a4,a2
    800003d4:	0080006f          	j	800003dc <itoa+0xcc>
    800003d8:	0007c683          	lbu	a3,0(a5)
    800003dc:	00d70023          	sb	a3,0(a4)
    800003e0:	00170713          	addi	a4,a4,1
    800003e4:	fff78793          	addi	a5,a5,-1
    800003e8:	fec718e3          	bne	a4,a2,800003d8 <itoa+0xc8>
    800003ec:	00060023          	sb	zero,0(a2)
    800003f0:	09010113          	addi	sp,sp,144
    800003f4:	00008067          	ret
    800003f8:	02d00713          	li	a4,45
    800003fc:	00e58023          	sb	a4,0(a1)
    80000400:	40f007bb          	negw	a5,a5
    80000404:	00158713          	addi	a4,a1,1
    80000408:	f8dff06f          	j	80000394 <itoa+0x84>
    8000040c:	00058613          	mv	a2,a1
    80000410:	00060023          	sb	zero,0(a2)
    80000414:	09010113          	addi	sp,sp,144
    80000418:	00008067          	ret
