
/home/lixinbao/ysyx-workbench/nanos-lite/build/nanos-lite-riscv64-nemu.elf:     file format elf64-littleriscv


Disassembly of section .text:

0000000080000000 <_start>:
    80000000:	00000413          	li	s0,0
    80000004:	01ae5117          	auipc	sp,0x1ae5
    80000008:	ffc10113          	addi	sp,sp,-4 # 81ae5000 <_end>
    8000000c:	549000ef          	jal	ra,80000d54 <_trm_init>

0000000080000010 <do_event>:
    80000010:	00052703          	lw	a4,0(a0)
    80000014:	ff010113          	addi	sp,sp,-16
    80000018:	00813023          	sd	s0,0(sp)
    8000001c:	00113423          	sd	ra,8(sp)
    80000020:	00200793          	li	a5,2
    80000024:	00058413          	mv	s0,a1
    80000028:	06f70063          	beq	a4,a5,80000088 <do_event+0x78>
    8000002c:	00400793          	li	a5,4
    80000030:	04f70263          	beq	a4,a5,80000074 <do_event+0x64>
    80000034:	00100793          	li	a5,1
    80000038:	02f70663          	beq	a4,a5,80000064 <do_event+0x54>
    8000003c:	00002697          	auipc	a3,0x2
    80000040:	89c68693          	addi	a3,a3,-1892 # 800018d8 <__func__.0>
    80000044:	00800613          	li	a2,8
    80000048:	00001597          	auipc	a1,0x1
    8000004c:	78058593          	addi	a1,a1,1920 # 800017c8 <_etext+0x24>
    80000050:	00001517          	auipc	a0,0x1
    80000054:	7b050513          	addi	a0,a0,1968 # 80001800 <_etext+0x5c>
    80000058:	27c010ef          	jal	ra,800012d4 <printf>
    8000005c:	00100513          	li	a0,1
    80000060:	4e9000ef          	jal	ra,80000d48 <halt>
    80000064:	00100593          	li	a1,1
    80000068:	00001517          	auipc	a0,0x1
    8000006c:	74050513          	addi	a0,a0,1856 # 800017a8 <_etext+0x4>
    80000070:	264010ef          	jal	ra,800012d4 <printf>
    80000074:	00813083          	ld	ra,8(sp)
    80000078:	00040513          	mv	a0,s0
    8000007c:	00013403          	ld	s0,0(sp)
    80000080:	01010113          	addi	sp,sp,16
    80000084:	00008067          	ret
    80000088:	00058513          	mv	a0,a1
    8000008c:	6ac000ef          	jal	ra,80000738 <do_syscall>
    80000090:	00813083          	ld	ra,8(sp)
    80000094:	00040513          	mv	a0,s0
    80000098:	00013403          	ld	s0,0(sp)
    8000009c:	01010113          	addi	sp,sp,16
    800000a0:	00008067          	ret

00000000800000a4 <init_irq>:
    800000a4:	ff010113          	addi	sp,sp,-16
    800000a8:	00813023          	sd	s0,0(sp)
    800000ac:	00002417          	auipc	s0,0x2
    800000b0:	83c40413          	addi	s0,s0,-1988 # 800018e8 <__func__.1>
    800000b4:	00040693          	mv	a3,s0
    800000b8:	00f00613          	li	a2,15
    800000bc:	00001597          	auipc	a1,0x1
    800000c0:	70c58593          	addi	a1,a1,1804 # 800017c8 <_etext+0x24>
    800000c4:	00001517          	auipc	a0,0x1
    800000c8:	78450513          	addi	a0,a0,1924 # 80001848 <_etext+0xa4>
    800000cc:	00113423          	sd	ra,8(sp)
    800000d0:	204010ef          	jal	ra,800012d4 <printf>
    800000d4:	00000517          	auipc	a0,0x0
    800000d8:	f3c50513          	addi	a0,a0,-196 # 80000010 <do_event>
    800000dc:	090010ef          	jal	ra,8000116c <cte_init>
    800000e0:	00040693          	mv	a3,s0
    800000e4:	01200613          	li	a2,18
    800000e8:	00001597          	auipc	a1,0x1
    800000ec:	6e058593          	addi	a1,a1,1760 # 800017c8 <_etext+0x24>
    800000f0:	00001517          	auipc	a0,0x1
    800000f4:	7a050513          	addi	a0,a0,1952 # 80001890 <_etext+0xec>
    800000f8:	1dc010ef          	jal	ra,800012d4 <printf>
    800000fc:	00813083          	ld	ra,8(sp)
    80000100:	00013403          	ld	s0,0(sp)
    80000104:	00000513          	li	a0,0
    80000108:	01010113          	addi	sp,sp,16
    8000010c:	00008067          	ret

0000000080000110 <ramdisk_read>:
    80000110:	ff010113          	addi	sp,sp,-16
    80000114:	00003717          	auipc	a4,0x3
    80000118:	00d70713          	addi	a4,a4,13 # 80003121 <ramdisk_start>
    8000011c:	01ad2797          	auipc	a5,0x1ad2
    80000120:	20578793          	addi	a5,a5,517 # 81ad2321 <_data>
    80000124:	00113423          	sd	ra,8(sp)
    80000128:	00813023          	sd	s0,0(sp)
    8000012c:	00c586b3          	add	a3,a1,a2
    80000130:	40e787b3          	sub	a5,a5,a4
    80000134:	02d7e263          	bltu	a5,a3,80000158 <ramdisk_read+0x48>
    80000138:	00b705b3          	add	a1,a4,a1
    8000013c:	00060413          	mv	s0,a2
    80000140:	534010ef          	jal	ra,80001674 <memcpy>
    80000144:	00813083          	ld	ra,8(sp)
    80000148:	00040513          	mv	a0,s0
    8000014c:	00013403          	ld	s0,0(sp)
    80000150:	01010113          	addi	sp,sp,16
    80000154:	00008067          	ret
    80000158:	00001717          	auipc	a4,0x1
    8000015c:	7a070713          	addi	a4,a4,1952 # 800018f8 <__func__.1+0x10>
    80000160:	00002697          	auipc	a3,0x2
    80000164:	8a868693          	addi	a3,a3,-1880 # 80001a08 <__func__.2>
    80000168:	00e00613          	li	a2,14
    8000016c:	00001597          	auipc	a1,0x1
    80000170:	7ac58593          	addi	a1,a1,1964 # 80001918 <__func__.1+0x30>
    80000174:	00001517          	auipc	a0,0x1
    80000178:	7dc50513          	addi	a0,a0,2012 # 80001950 <__func__.1+0x68>
    8000017c:	158010ef          	jal	ra,800012d4 <printf>
    80000180:	00100513          	li	a0,1
    80000184:	3c5000ef          	jal	ra,80000d48 <halt>

0000000080000188 <ramdisk_write>:
    80000188:	ff010113          	addi	sp,sp,-16
    8000018c:	00003697          	auipc	a3,0x3
    80000190:	f9568693          	addi	a3,a3,-107 # 80003121 <ramdisk_start>
    80000194:	01ad2717          	auipc	a4,0x1ad2
    80000198:	18d70713          	addi	a4,a4,397 # 81ad2321 <_data>
    8000019c:	00113423          	sd	ra,8(sp)
    800001a0:	00813023          	sd	s0,0(sp)
    800001a4:	00c58833          	add	a6,a1,a2
    800001a8:	40d70733          	sub	a4,a4,a3
    800001ac:	03076663          	bltu	a4,a6,800001d8 <ramdisk_write+0x50>
    800001b0:	00058793          	mv	a5,a1
    800001b4:	00050593          	mv	a1,a0
    800001b8:	00f68533          	add	a0,a3,a5
    800001bc:	00060413          	mv	s0,a2
    800001c0:	4b4010ef          	jal	ra,80001674 <memcpy>
    800001c4:	00813083          	ld	ra,8(sp)
    800001c8:	00040513          	mv	a0,s0
    800001cc:	00013403          	ld	s0,0(sp)
    800001d0:	01010113          	addi	sp,sp,16
    800001d4:	00008067          	ret
    800001d8:	00001717          	auipc	a4,0x1
    800001dc:	72070713          	addi	a4,a4,1824 # 800018f8 <__func__.1+0x10>
    800001e0:	00002697          	auipc	a3,0x2
    800001e4:	81868693          	addi	a3,a3,-2024 # 800019f8 <__func__.1>
    800001e8:	01500613          	li	a2,21
    800001ec:	00001597          	auipc	a1,0x1
    800001f0:	72c58593          	addi	a1,a1,1836 # 80001918 <__func__.1+0x30>
    800001f4:	00001517          	auipc	a0,0x1
    800001f8:	75c50513          	addi	a0,a0,1884 # 80001950 <__func__.1+0x68>
    800001fc:	0d8010ef          	jal	ra,800012d4 <printf>
    80000200:	00100513          	li	a0,1
    80000204:	345000ef          	jal	ra,80000d48 <halt>

0000000080000208 <init_ramdisk>:
    80000208:	01ad2797          	auipc	a5,0x1ad2
    8000020c:	11978793          	addi	a5,a5,281 # 81ad2321 <_data>
    80000210:	00003717          	auipc	a4,0x3
    80000214:	f1170713          	addi	a4,a4,-239 # 80003121 <ramdisk_start>
    80000218:	40e78833          	sub	a6,a5,a4
    8000021c:	00001697          	auipc	a3,0x1
    80000220:	7cc68693          	addi	a3,a3,1996 # 800019e8 <__func__.0>
    80000224:	01b00613          	li	a2,27
    80000228:	00001597          	auipc	a1,0x1
    8000022c:	6f058593          	addi	a1,a1,1776 # 80001918 <__func__.1+0x30>
    80000230:	00001517          	auipc	a0,0x1
    80000234:	76850513          	addi	a0,a0,1896 # 80001998 <__func__.1+0xb0>
    80000238:	09c0106f          	j	800012d4 <printf>

000000008000023c <invalid_read>:
    8000023c:	ff010113          	addi	sp,sp,-16
    80000240:	00002697          	auipc	a3,0x2
    80000244:	fd868693          	addi	a3,a3,-40 # 80002218 <__func__.7>
    80000248:	01a00613          	li	a2,26
    8000024c:	00001597          	auipc	a1,0x1
    80000250:	7cc58593          	addi	a1,a1,1996 # 80001a18 <__func__.2+0x10>
    80000254:	00001517          	auipc	a0,0x1
    80000258:	7fc50513          	addi	a0,a0,2044 # 80001a50 <__func__.2+0x48>
    8000025c:	00113423          	sd	ra,8(sp)
    80000260:	074010ef          	jal	ra,800012d4 <printf>
    80000264:	00100513          	li	a0,1
    80000268:	2e1000ef          	jal	ra,80000d48 <halt>

000000008000026c <invalid_read_stdin>:
    8000026c:	ff010113          	addi	sp,sp,-16
    80000270:	00002697          	auipc	a3,0x2
    80000274:	f9068693          	addi	a3,a3,-112 # 80002200 <__func__.6>
    80000278:	01e00613          	li	a2,30
    8000027c:	00001597          	auipc	a1,0x1
    80000280:	79c58593          	addi	a1,a1,1948 # 80001a18 <__func__.2+0x10>
    80000284:	00001517          	auipc	a0,0x1
    80000288:	7cc50513          	addi	a0,a0,1996 # 80001a50 <__func__.2+0x48>
    8000028c:	00113423          	sd	ra,8(sp)
    80000290:	044010ef          	jal	ra,800012d4 <printf>
    80000294:	00100513          	li	a0,1
    80000298:	2b1000ef          	jal	ra,80000d48 <halt>

000000008000029c <invalid_read_fb>:
    8000029c:	ff010113          	addi	sp,sp,-16
    800002a0:	00002697          	auipc	a3,0x2
    800002a4:	f5068693          	addi	a3,a3,-176 # 800021f0 <__func__.5>
    800002a8:	02300613          	li	a2,35
    800002ac:	00001597          	auipc	a1,0x1
    800002b0:	76c58593          	addi	a1,a1,1900 # 80001a18 <__func__.2+0x10>
    800002b4:	00001517          	auipc	a0,0x1
    800002b8:	7e450513          	addi	a0,a0,2020 # 80001a98 <__func__.2+0x90>
    800002bc:	00113423          	sd	ra,8(sp)
    800002c0:	014010ef          	jal	ra,800012d4 <printf>
    800002c4:	00100513          	li	a0,1
    800002c8:	281000ef          	jal	ra,80000d48 <halt>

00000000800002cc <invalid_write>:
    800002cc:	ff010113          	addi	sp,sp,-16
    800002d0:	00002697          	auipc	a3,0x2
    800002d4:	f1068693          	addi	a3,a3,-240 # 800021e0 <__func__.4>
    800002d8:	02700613          	li	a2,39
    800002dc:	00001597          	auipc	a1,0x1
    800002e0:	73c58593          	addi	a1,a1,1852 # 80001a18 <__func__.2+0x10>
    800002e4:	00001517          	auipc	a0,0x1
    800002e8:	76c50513          	addi	a0,a0,1900 # 80001a50 <__func__.2+0x48>
    800002ec:	00113423          	sd	ra,8(sp)
    800002f0:	7e5000ef          	jal	ra,800012d4 <printf>
    800002f4:	00100513          	li	a0,1
    800002f8:	251000ef          	jal	ra,80000d48 <halt>

00000000800002fc <init_fs>:
    800002fc:	fd010113          	addi	sp,sp,-48
    80000300:	00913c23          	sd	s1,24(sp)
    80000304:	00003497          	auipc	s1,0x3
    80000308:	dfc48493          	addi	s1,s1,-516 # 80003100 <__func__.3>
    8000030c:	00048693          	mv	a3,s1
    80000310:	03800613          	li	a2,56
    80000314:	00001597          	auipc	a1,0x1
    80000318:	70458593          	addi	a1,a1,1796 # 80001a18 <__func__.2+0x10>
    8000031c:	00001517          	auipc	a0,0x1
    80000320:	7c450513          	addi	a0,a0,1988 # 80001ae0 <__func__.2+0xd8>
    80000324:	02113423          	sd	ra,40(sp)
    80000328:	02813023          	sd	s0,32(sp)
    8000032c:	7a9000ef          	jal	ra,800012d4 <printf>
    80000330:	00010593          	mv	a1,sp
    80000334:	00900513          	li	a0,9
    80000338:	32d000ef          	jal	ra,80000e64 <ioe_read>
    8000033c:	00010593          	mv	a1,sp
    80000340:	00900513          	li	a0,9
    80000344:	00412403          	lw	s0,4(sp)
    80000348:	31d000ef          	jal	ra,80000e64 <ioe_read>
    8000034c:	00812783          	lw	a5,8(sp)
    80000350:	02813083          	ld	ra,40(sp)
    80000354:	00048693          	mv	a3,s1
    80000358:	02f4043b          	mulw	s0,s0,a5
    8000035c:	01813483          	ld	s1,24(sp)
    80000360:	03a00613          	li	a2,58
    80000364:	00001597          	auipc	a1,0x1
    80000368:	6b458593          	addi	a1,a1,1716 # 80001a18 <__func__.2+0x10>
    8000036c:	00001517          	auipc	a0,0x1
    80000370:	79450513          	addi	a0,a0,1940 # 80001b00 <__func__.2+0xf8>
    80000374:	0024141b          	slliw	s0,s0,0x2
    80000378:	01ad2797          	auipc	a5,0x1ad2
    8000037c:	0687bc23          	sd	s0,120(a5) # 81ad23f0 <file_table+0xc8>
    80000380:	02013403          	ld	s0,32(sp)
    80000384:	03010113          	addi	sp,sp,48
    80000388:	74d0006f          	j	800012d4 <printf>

000000008000038c <fs_open>:
    8000038c:	fd010113          	addi	sp,sp,-48
    80000390:	01413023          	sd	s4,0(sp)
    80000394:	01ad2a17          	auipc	s4,0x1ad2
    80000398:	f94a0a13          	addi	s4,s4,-108 # 81ad2328 <file_table>
    8000039c:	02813023          	sd	s0,32(sp)
    800003a0:	00913c23          	sd	s1,24(sp)
    800003a4:	01213823          	sd	s2,16(sp)
    800003a8:	01313423          	sd	s3,8(sp)
    800003ac:	02113423          	sd	ra,40(sp)
    800003b0:	00050913          	mv	s2,a0
    800003b4:	000a0493          	mv	s1,s4
    800003b8:	00000413          	li	s0,0
    800003bc:	03900993          	li	s3,57
    800003c0:	00c0006f          	j	800003cc <fs_open+0x40>
    800003c4:	0014041b          	addiw	s0,s0,1
    800003c8:	05340863          	beq	s0,s3,80000418 <fs_open+0x8c>
    800003cc:	0004b503          	ld	a0,0(s1)
    800003d0:	00090593          	mv	a1,s2
    800003d4:	03048493          	addi	s1,s1,48
    800003d8:	24c010ef          	jal	ra,80001624 <strcmp>
    800003dc:	fe0514e3          	bnez	a0,800003c4 <fs_open+0x38>
    800003e0:	00141793          	slli	a5,s0,0x1
    800003e4:	008787b3          	add	a5,a5,s0
    800003e8:	00479793          	slli	a5,a5,0x4
    800003ec:	00fa0a33          	add	s4,s4,a5
    800003f0:	020a3423          	sd	zero,40(s4)
    800003f4:	02813083          	ld	ra,40(sp)
    800003f8:	00040513          	mv	a0,s0
    800003fc:	02013403          	ld	s0,32(sp)
    80000400:	01813483          	ld	s1,24(sp)
    80000404:	01013903          	ld	s2,16(sp)
    80000408:	00813983          	ld	s3,8(sp)
    8000040c:	00013a03          	ld	s4,0(sp)
    80000410:	03010113          	addi	sp,sp,48
    80000414:	00008067          	ret
    80000418:	00090593          	mv	a1,s2
    8000041c:	00001517          	auipc	a0,0x1
    80000420:	70c50513          	addi	a0,a0,1804 # 80001b28 <__func__.2+0x120>
    80000424:	6b1000ef          	jal	ra,800012d4 <printf>
    80000428:	00000413          	li	s0,0
    8000042c:	fc9ff06f          	j	800003f4 <fs_open+0x68>

0000000080000430 <fs_read>:
    80000430:	fd010113          	addi	sp,sp,-48
    80000434:	00913c23          	sd	s1,24(sp)
    80000438:	00151493          	slli	s1,a0,0x1
    8000043c:	00a487b3          	add	a5,s1,a0
    80000440:	01313423          	sd	s3,8(sp)
    80000444:	00479793          	slli	a5,a5,0x4
    80000448:	01ad2997          	auipc	s3,0x1ad2
    8000044c:	ee098993          	addi	s3,s3,-288 # 81ad2328 <file_table>
    80000450:	00f987b3          	add	a5,s3,a5
    80000454:	0187b683          	ld	a3,24(a5)
    80000458:	01213823          	sd	s2,16(sp)
    8000045c:	02113423          	sd	ra,40(sp)
    80000460:	02813023          	sd	s0,32(sp)
    80000464:	00050913          	mv	s2,a0
    80000468:	0287b703          	ld	a4,40(a5)
    8000046c:	00058513          	mv	a0,a1
    80000470:	04068463          	beqz	a3,800004b8 <fs_read+0x88>
    80000474:	00070593          	mv	a1,a4
    80000478:	000680e7          	jalr	a3
    8000047c:	0005041b          	sext.w	s0,a0
    80000480:	012484b3          	add	s1,s1,s2
    80000484:	00449493          	slli	s1,s1,0x4
    80000488:	009989b3          	add	s3,s3,s1
    8000048c:	0289b783          	ld	a5,40(s3)
    80000490:	02813083          	ld	ra,40(sp)
    80000494:	00040513          	mv	a0,s0
    80000498:	008787b3          	add	a5,a5,s0
    8000049c:	02013403          	ld	s0,32(sp)
    800004a0:	02f9b423          	sd	a5,40(s3)
    800004a4:	01813483          	ld	s1,24(sp)
    800004a8:	01013903          	ld	s2,16(sp)
    800004ac:	00813983          	ld	s3,8(sp)
    800004b0:	03010113          	addi	sp,sp,48
    800004b4:	00008067          	ret
    800004b8:	0087b783          	ld	a5,8(a5)
    800004bc:	02e7ea63          	bltu	a5,a4,800004f0 <fs_read+0xc0>
    800004c0:	00e606b3          	add	a3,a2,a4
    800004c4:	0006041b          	sext.w	s0,a2
    800004c8:	00d7f463          	bgeu	a5,a3,800004d0 <fs_read+0xa0>
    800004cc:	40e7843b          	subw	s0,a5,a4
    800004d0:	012487b3          	add	a5,s1,s2
    800004d4:	00479793          	slli	a5,a5,0x4
    800004d8:	00f987b3          	add	a5,s3,a5
    800004dc:	0107b583          	ld	a1,16(a5)
    800004e0:	00040613          	mv	a2,s0
    800004e4:	00b705b3          	add	a1,a4,a1
    800004e8:	c29ff0ef          	jal	ra,80000110 <ramdisk_read>
    800004ec:	f95ff06f          	j	80000480 <fs_read+0x50>
    800004f0:	00001717          	auipc	a4,0x1
    800004f4:	65070713          	addi	a4,a4,1616 # 80001b40 <__func__.2+0x138>
    800004f8:	00003697          	auipc	a3,0x3
    800004fc:	c0068693          	addi	a3,a3,-1024 # 800030f8 <__func__.2>
    80000500:	05100613          	li	a2,81
    80000504:	00001597          	auipc	a1,0x1
    80000508:	51458593          	addi	a1,a1,1300 # 80001a18 <__func__.2+0x10>
    8000050c:	00001517          	auipc	a0,0x1
    80000510:	44450513          	addi	a0,a0,1092 # 80001950 <__func__.1+0x68>
    80000514:	5c1000ef          	jal	ra,800012d4 <printf>
    80000518:	00100513          	li	a0,1
    8000051c:	02d000ef          	jal	ra,80000d48 <halt>

0000000080000520 <fs_write>:
    80000520:	fd010113          	addi	sp,sp,-48
    80000524:	00913c23          	sd	s1,24(sp)
    80000528:	00151493          	slli	s1,a0,0x1
    8000052c:	00a487b3          	add	a5,s1,a0
    80000530:	01313423          	sd	s3,8(sp)
    80000534:	00479793          	slli	a5,a5,0x4
    80000538:	01ad2997          	auipc	s3,0x1ad2
    8000053c:	df098993          	addi	s3,s3,-528 # 81ad2328 <file_table>
    80000540:	00f987b3          	add	a5,s3,a5
    80000544:	0207b683          	ld	a3,32(a5)
    80000548:	01213823          	sd	s2,16(sp)
    8000054c:	02113423          	sd	ra,40(sp)
    80000550:	02813023          	sd	s0,32(sp)
    80000554:	00050913          	mv	s2,a0
    80000558:	0287b703          	ld	a4,40(a5)
    8000055c:	00058513          	mv	a0,a1
    80000560:	04068463          	beqz	a3,800005a8 <fs_write+0x88>
    80000564:	00070593          	mv	a1,a4
    80000568:	000680e7          	jalr	a3
    8000056c:	0005041b          	sext.w	s0,a0
    80000570:	012484b3          	add	s1,s1,s2
    80000574:	00449493          	slli	s1,s1,0x4
    80000578:	009989b3          	add	s3,s3,s1
    8000057c:	0289b783          	ld	a5,40(s3)
    80000580:	02813083          	ld	ra,40(sp)
    80000584:	00040513          	mv	a0,s0
    80000588:	008787b3          	add	a5,a5,s0
    8000058c:	02013403          	ld	s0,32(sp)
    80000590:	02f9b423          	sd	a5,40(s3)
    80000594:	01813483          	ld	s1,24(sp)
    80000598:	01013903          	ld	s2,16(sp)
    8000059c:	00813983          	ld	s3,8(sp)
    800005a0:	03010113          	addi	sp,sp,48
    800005a4:	00008067          	ret
    800005a8:	0087b783          	ld	a5,8(a5)
    800005ac:	02e7ea63          	bltu	a5,a4,800005e0 <fs_write+0xc0>
    800005b0:	00e606b3          	add	a3,a2,a4
    800005b4:	0006041b          	sext.w	s0,a2
    800005b8:	00d7f463          	bgeu	a5,a3,800005c0 <fs_write+0xa0>
    800005bc:	40e7843b          	subw	s0,a5,a4
    800005c0:	012487b3          	add	a5,s1,s2
    800005c4:	00479793          	slli	a5,a5,0x4
    800005c8:	00f987b3          	add	a5,s3,a5
    800005cc:	0107b583          	ld	a1,16(a5)
    800005d0:	00040613          	mv	a2,s0
    800005d4:	00b705b3          	add	a1,a4,a1
    800005d8:	bb1ff0ef          	jal	ra,80000188 <ramdisk_write>
    800005dc:	f95ff06f          	j	80000570 <fs_write+0x50>
    800005e0:	00001717          	auipc	a4,0x1
    800005e4:	56070713          	addi	a4,a4,1376 # 80001b40 <__func__.2+0x138>
    800005e8:	00002697          	auipc	a3,0x2
    800005ec:	be868693          	addi	a3,a3,-1048 # 800021d0 <__func__.1>
    800005f0:	06000613          	li	a2,96
    800005f4:	00001597          	auipc	a1,0x1
    800005f8:	42458593          	addi	a1,a1,1060 # 80001a18 <__func__.2+0x10>
    800005fc:	00001517          	auipc	a0,0x1
    80000600:	35450513          	addi	a0,a0,852 # 80001950 <__func__.1+0x68>
    80000604:	4d1000ef          	jal	ra,800012d4 <printf>
    80000608:	00100513          	li	a0,1
    8000060c:	73c000ef          	jal	ra,80000d48 <halt>

0000000080000610 <fs_lseek>:
    80000610:	00100793          	li	a5,1
    80000614:	00050713          	mv	a4,a0
    80000618:	08f60e63          	beq	a2,a5,800006b4 <fs_lseek+0xa4>
    8000061c:	00200793          	li	a5,2
    80000620:	06f60063          	beq	a2,a5,80000680 <fs_lseek+0x70>
    80000624:	02060c63          	beqz	a2,8000065c <fs_lseek+0x4c>
    80000628:	ff010113          	addi	sp,sp,-16
    8000062c:	00060713          	mv	a4,a2
    80000630:	00002697          	auipc	a3,0x2
    80000634:	b9068693          	addi	a3,a3,-1136 # 800021c0 <__func__.0>
    80000638:	07300613          	li	a2,115
    8000063c:	00001597          	auipc	a1,0x1
    80000640:	3dc58593          	addi	a1,a1,988 # 80001a18 <__func__.2+0x10>
    80000644:	00001517          	auipc	a0,0x1
    80000648:	53450513          	addi	a0,a0,1332 # 80001b78 <__func__.2+0x170>
    8000064c:	00113423          	sd	ra,8(sp)
    80000650:	485000ef          	jal	ra,800012d4 <printf>
    80000654:	00100513          	li	a0,1
    80000658:	6f0000ef          	jal	ra,80000d48 <halt>
    8000065c:	00171793          	slli	a5,a4,0x1
    80000660:	00e787b3          	add	a5,a5,a4
    80000664:	00479793          	slli	a5,a5,0x4
    80000668:	01ad2697          	auipc	a3,0x1ad2
    8000066c:	cc068693          	addi	a3,a3,-832 # 81ad2328 <file_table>
    80000670:	00058513          	mv	a0,a1
    80000674:	00f686b3          	add	a3,a3,a5
    80000678:	02a6b423          	sd	a0,40(a3)
    8000067c:	00008067          	ret
    80000680:	00151793          	slli	a5,a0,0x1
    80000684:	00a78633          	add	a2,a5,a0
    80000688:	01ad2697          	auipc	a3,0x1ad2
    8000068c:	ca068693          	addi	a3,a3,-864 # 81ad2328 <file_table>
    80000690:	00461613          	slli	a2,a2,0x4
    80000694:	00c68633          	add	a2,a3,a2
    80000698:	00863603          	ld	a2,8(a2)
    8000069c:	00e787b3          	add	a5,a5,a4
    800006a0:	00479793          	slli	a5,a5,0x4
    800006a4:	00c58533          	add	a0,a1,a2
    800006a8:	00f686b3          	add	a3,a3,a5
    800006ac:	02a6b423          	sd	a0,40(a3)
    800006b0:	00008067          	ret
    800006b4:	00151793          	slli	a5,a0,0x1
    800006b8:	00a78633          	add	a2,a5,a0
    800006bc:	01ad2697          	auipc	a3,0x1ad2
    800006c0:	c6c68693          	addi	a3,a3,-916 # 81ad2328 <file_table>
    800006c4:	00461613          	slli	a2,a2,0x4
    800006c8:	00c68633          	add	a2,a3,a2
    800006cc:	02863603          	ld	a2,40(a2)
    800006d0:	00e787b3          	add	a5,a5,a4
    800006d4:	00479793          	slli	a5,a5,0x4
    800006d8:	00c58533          	add	a0,a1,a2
    800006dc:	00f686b3          	add	a3,a3,a5
    800006e0:	02a6b423          	sd	a0,40(a3)
    800006e4:	00008067          	ret

00000000800006e8 <init_proc>:
    800006e8:	ff010113          	addi	sp,sp,-16
    800006ec:	00002597          	auipc	a1,0x2
    800006f0:	b3c58593          	addi	a1,a1,-1220 # 80002228 <__func__.7+0x10>
    800006f4:	01ad4797          	auipc	a5,0x1ad4
    800006f8:	90c78793          	addi	a5,a5,-1780 # 81ad4000 <pcb_boot>
    800006fc:	00002697          	auipc	a3,0x2
    80000700:	bf468693          	addi	a3,a3,-1036 # 800022f0 <__func__.0>
    80000704:	01900613          	li	a2,25
    80000708:	00002517          	auipc	a0,0x2
    8000070c:	bb050513          	addi	a0,a0,-1104 # 800022b8 <__func__.7+0xa0>
    80000710:	00113423          	sd	ra,8(sp)
    80000714:	01adc717          	auipc	a4,0x1adc
    80000718:	8ef73623          	sd	a5,-1812(a4) # 81adc000 <current>
    8000071c:	3b9000ef          	jal	ra,800012d4 <printf>
    80000720:	00813083          	ld	ra,8(sp)
    80000724:	00001597          	auipc	a1,0x1
    80000728:	4ec58593          	addi	a1,a1,1260 # 80001c10 <__func__.2+0x208>
    8000072c:	00000513          	li	a0,0
    80000730:	01010113          	addi	sp,sp,16
    80000734:	1380006f          	j	8000086c <naive_uload>

0000000080000738 <do_syscall>:
    80000738:	08853703          	ld	a4,136(a0)
    8000073c:	ff010113          	addi	sp,sp,-16
    80000740:	00813023          	sd	s0,0(sp)
    80000744:	00113423          	sd	ra,8(sp)
    80000748:	00050413          	mv	s0,a0
    8000074c:	01300793          	li	a5,19
    80000750:	05053503          	ld	a0,80(a0)
    80000754:	05843583          	ld	a1,88(s0)
    80000758:	06043603          	ld	a2,96(s0)
    8000075c:	0ee7e063          	bltu	a5,a4,8000083c <do_syscall+0x104>
    80000760:	00002697          	auipc	a3,0x2
    80000764:	c4068693          	addi	a3,a3,-960 # 800023a0 <__func__.0+0xb0>
    80000768:	00271793          	slli	a5,a4,0x2
    8000076c:	00d787b3          	add	a5,a5,a3
    80000770:	0007a783          	lw	a5,0(a5)
    80000774:	00d787b3          	add	a5,a5,a3
    80000778:	00078067          	jr	a5
    8000077c:	00813083          	ld	ra,8(sp)
    80000780:	04043823          	sd	zero,80(s0)
    80000784:	00013403          	ld	s0,0(sp)
    80000788:	01010113          	addi	sp,sp,16
    8000078c:	00008067          	ret
    80000790:	00013403          	ld	s0,0(sp)
    80000794:	00813083          	ld	ra,8(sp)
    80000798:	00100593          	li	a1,1
    8000079c:	00002517          	auipc	a0,0x2
    800007a0:	b6450513          	addi	a0,a0,-1180 # 80002300 <__func__.0+0x10>
    800007a4:	01010113          	addi	sp,sp,16
    800007a8:	32d0006f          	j	800012d4 <printf>
    800007ac:	0006061b          	sext.w	a2,a2
    800007b0:	0005859b          	sext.w	a1,a1
    800007b4:	bd9ff0ef          	jal	ra,8000038c <fs_open>
    800007b8:	00813083          	ld	ra,8(sp)
    800007bc:	04a43823          	sd	a0,80(s0)
    800007c0:	00013403          	ld	s0,0(sp)
    800007c4:	01010113          	addi	sp,sp,16
    800007c8:	00008067          	ret
    800007cc:	0005051b          	sext.w	a0,a0
    800007d0:	c61ff0ef          	jal	ra,80000430 <fs_read>
    800007d4:	00813083          	ld	ra,8(sp)
    800007d8:	04a43823          	sd	a0,80(s0)
    800007dc:	00013403          	ld	s0,0(sp)
    800007e0:	01010113          	addi	sp,sp,16
    800007e4:	00008067          	ret
    800007e8:	0006061b          	sext.w	a2,a2
    800007ec:	0005051b          	sext.w	a0,a0
    800007f0:	e21ff0ef          	jal	ra,80000610 <fs_lseek>
    800007f4:	00813083          	ld	ra,8(sp)
    800007f8:	04a43823          	sd	a0,80(s0)
    800007fc:	00013403          	ld	s0,0(sp)
    80000800:	01010113          	addi	sp,sp,16
    80000804:	00008067          	ret
    80000808:	40c000ef          	jal	ra,80000c14 <gettimeofday>
    8000080c:	00813083          	ld	ra,8(sp)
    80000810:	04a43823          	sd	a0,80(s0)
    80000814:	00013403          	ld	s0,0(sp)
    80000818:	01010113          	addi	sp,sp,16
    8000081c:	00008067          	ret
    80000820:	0005051b          	sext.w	a0,a0
    80000824:	cfdff0ef          	jal	ra,80000520 <fs_write>
    80000828:	00813083          	ld	ra,8(sp)
    8000082c:	04a43823          	sd	a0,80(s0)
    80000830:	00013403          	ld	s0,0(sp)
    80000834:	01010113          	addi	sp,sp,16
    80000838:	00008067          	ret
    8000083c:	00002697          	auipc	a3,0x2
    80000840:	bb468693          	addi	a3,a3,-1100 # 800023f0 <__func__.0>
    80000844:	02f00613          	li	a2,47
    80000848:	00002597          	auipc	a1,0x2
    8000084c:	ad058593          	addi	a1,a1,-1328 # 80002318 <__func__.0+0x28>
    80000850:	00002517          	auipc	a0,0x2
    80000854:	b0050513          	addi	a0,a0,-1280 # 80002350 <__func__.0+0x60>
    80000858:	27d000ef          	jal	ra,800012d4 <printf>
    8000085c:	00100513          	li	a0,1
    80000860:	4e8000ef          	jal	ra,80000d48 <halt>
    80000864:	0005051b          	sext.w	a0,a0
    80000868:	4e0000ef          	jal	ra,80000d48 <halt>

000000008000086c <naive_uload>:
    8000086c:	f4010113          	addi	sp,sp,-192
    80000870:	00058713          	mv	a4,a1
    80000874:	00003697          	auipc	a3,0x3
    80000878:	89468693          	addi	a3,a3,-1900 # 80003108 <__func__.0>
    8000087c:	09413823          	sd	s4,144(sp)
    80000880:	01400613          	li	a2,20
    80000884:	00058a13          	mv	s4,a1
    80000888:	00002517          	auipc	a0,0x2
    8000088c:	bb050513          	addi	a0,a0,-1104 # 80002438 <__func__.0+0x48>
    80000890:	00002597          	auipc	a1,0x2
    80000894:	b7058593          	addi	a1,a1,-1168 # 80002400 <__func__.0+0x10>
    80000898:	0a113c23          	sd	ra,184(sp)
    8000089c:	0b213023          	sd	s2,160(sp)
    800008a0:	0a813823          	sd	s0,176(sp)
    800008a4:	0a913423          	sd	s1,168(sp)
    800008a8:	09313c23          	sd	s3,152(sp)
    800008ac:	09513423          	sd	s5,136(sp)
    800008b0:	225000ef          	jal	ra,800012d4 <printf>
    800008b4:	00000613          	li	a2,0
    800008b8:	00000593          	li	a1,0
    800008bc:	000a0513          	mv	a0,s4
    800008c0:	acdff0ef          	jal	ra,8000038c <fs_open>
    800008c4:	00050713          	mv	a4,a0
    800008c8:	00050913          	mv	s2,a0
    800008cc:	00003697          	auipc	a3,0x3
    800008d0:	83c68693          	addi	a3,a3,-1988 # 80003108 <__func__.0>
    800008d4:	01800613          	li	a2,24
    800008d8:	00002597          	auipc	a1,0x2
    800008dc:	b2858593          	addi	a1,a1,-1240 # 80002400 <__func__.0+0x10>
    800008e0:	00002517          	auipc	a0,0x2
    800008e4:	b8050513          	addi	a0,a0,-1152 # 80002460 <__func__.0+0x70>
    800008e8:	1ed000ef          	jal	ra,800012d4 <printf>
    800008ec:	04000613          	li	a2,64
    800008f0:	04010593          	addi	a1,sp,64
    800008f4:	00090513          	mv	a0,s2
    800008f8:	b39ff0ef          	jal	ra,80000430 <fs_read>
    800008fc:	07815783          	lhu	a5,120(sp)
    80000900:	04078a63          	beqz	a5,80000954 <naive_uload+0xe8>
    80000904:	00000493          	li	s1,0
    80000908:	00000413          	li	s0,0
    8000090c:	00100993          	li	s3,1
    80000910:	00002a97          	auipc	s5,0x2
    80000914:	b70a8a93          	addi	s5,s5,-1168 # 80002480 <__func__.0+0x90>
    80000918:	06013583          	ld	a1,96(sp)
    8000091c:	00000613          	li	a2,0
    80000920:	00090513          	mv	a0,s2
    80000924:	00b485b3          	add	a1,s1,a1
    80000928:	ce9ff0ef          	jal	ra,80000610 <fs_lseek>
    8000092c:	03800613          	li	a2,56
    80000930:	00810593          	addi	a1,sp,8
    80000934:	00090513          	mv	a0,s2
    80000938:	af9ff0ef          	jal	ra,80000430 <fs_read>
    8000093c:	00812783          	lw	a5,8(sp)
    80000940:	09378463          	beq	a5,s3,800009c8 <naive_uload+0x15c>
    80000944:	07815783          	lhu	a5,120(sp)
    80000948:	0014041b          	addiw	s0,s0,1
    8000094c:	03848493          	addi	s1,s1,56
    80000950:	fcf444e3          	blt	s0,a5,80000918 <naive_uload+0xac>
    80000954:	000a0713          	mv	a4,s4
    80000958:	00002697          	auipc	a3,0x2
    8000095c:	7b068693          	addi	a3,a3,1968 # 80003108 <__func__.0>
    80000960:	03700613          	li	a2,55
    80000964:	00002597          	auipc	a1,0x2
    80000968:	a9c58593          	addi	a1,a1,-1380 # 80002400 <__func__.0+0x10>
    8000096c:	00002517          	auipc	a0,0x2
    80000970:	b2c50513          	addi	a0,a0,-1236 # 80002498 <__func__.0+0xa8>
    80000974:	161000ef          	jal	ra,800012d4 <printf>
    80000978:	05813403          	ld	s0,88(sp)
    8000097c:	00002697          	auipc	a3,0x2
    80000980:	b7468693          	addi	a3,a3,-1164 # 800024f0 <__func__.1>
    80000984:	03d00613          	li	a2,61
    80000988:	00040713          	mv	a4,s0
    8000098c:	00002597          	auipc	a1,0x2
    80000990:	a7458593          	addi	a1,a1,-1420 # 80002400 <__func__.0+0x10>
    80000994:	00002517          	auipc	a0,0x2
    80000998:	b2c50513          	addi	a0,a0,-1236 # 800024c0 <__func__.0+0xd0>
    8000099c:	139000ef          	jal	ra,800012d4 <printf>
    800009a0:	00040793          	mv	a5,s0
    800009a4:	0b013403          	ld	s0,176(sp)
    800009a8:	0b813083          	ld	ra,184(sp)
    800009ac:	0a813483          	ld	s1,168(sp)
    800009b0:	0a013903          	ld	s2,160(sp)
    800009b4:	09813983          	ld	s3,152(sp)
    800009b8:	09013a03          	ld	s4,144(sp)
    800009bc:	08813a83          	ld	s5,136(sp)
    800009c0:	0c010113          	addi	sp,sp,192
    800009c4:	00078067          	jr	a5
    800009c8:	01013583          	ld	a1,16(sp)
    800009cc:	00000613          	li	a2,0
    800009d0:	00090513          	mv	a0,s2
    800009d4:	c3dff0ef          	jal	ra,80000610 <fs_lseek>
    800009d8:	03013603          	ld	a2,48(sp)
    800009dc:	01813583          	ld	a1,24(sp)
    800009e0:	00090513          	mv	a0,s2
    800009e4:	a4dff0ef          	jal	ra,80000430 <fs_read>
    800009e8:	02813583          	ld	a1,40(sp)
    800009ec:	00000613          	li	a2,0
    800009f0:	00090513          	mv	a0,s2
    800009f4:	c1dff0ef          	jal	ra,80000610 <fs_lseek>
    800009f8:	02813583          	ld	a1,40(sp)
    800009fc:	000a8513          	mv	a0,s5
    80000a00:	0d5000ef          	jal	ra,800012d4 <printf>
    80000a04:	02813783          	ld	a5,40(sp)
    80000a08:	03013703          	ld	a4,48(sp)
    80000a0c:	f2e7fce3          	bgeu	a5,a4,80000944 <naive_uload+0xd8>
    80000a10:	01813683          	ld	a3,24(sp)
    80000a14:	00f686b3          	add	a3,a3,a5
    80000a18:	00068023          	sb	zero,0(a3)
    80000a1c:	03013703          	ld	a4,48(sp)
    80000a20:	00178793          	addi	a5,a5,1
    80000a24:	fee7e6e3          	bltu	a5,a4,80000a10 <naive_uload+0x1a4>
    80000a28:	f1dff06f          	j	80000944 <naive_uload+0xd8>

0000000080000a2c <init_mm>:
    80000a2c:	00001737          	lui	a4,0x1
    80000a30:	fff70713          	addi	a4,a4,-1 # fff <_entry_offset+0xfff>
    80000a34:	01ad3797          	auipc	a5,0x1ad3
    80000a38:	ba47b783          	ld	a5,-1116(a5) # 81ad35d8 <heap>
    80000a3c:	00e787b3          	add	a5,a5,a4
    80000a40:	fffff737          	lui	a4,0xfffff
    80000a44:	00e7f733          	and	a4,a5,a4
    80000a48:	00002697          	auipc	a3,0x2
    80000a4c:	6c868693          	addi	a3,a3,1736 # 80003110 <__func__.0>
    80000a50:	01a00613          	li	a2,26
    80000a54:	00002597          	auipc	a1,0x2
    80000a58:	aac58593          	addi	a1,a1,-1364 # 80002500 <__func__.1+0x10>
    80000a5c:	00002517          	auipc	a0,0x2
    80000a60:	b1c50513          	addi	a0,a0,-1252 # 80002578 <__func__.1+0x88>
    80000a64:	0710006f          	j	800012d4 <printf>

0000000080000a68 <serial_write>:
    80000a68:	ff010113          	addi	sp,sp,-16
    80000a6c:	00813023          	sd	s0,0(sp)
    80000a70:	00113423          	sd	ra,8(sp)
    80000a74:	00060413          	mv	s0,a2
    80000a78:	00060663          	beqz	a2,80000a84 <serial_write+0x1c>
    80000a7c:	00054503          	lbu	a0,0(a0)
    80000a80:	2b8000ef          	jal	ra,80000d38 <putch>
    80000a84:	00813083          	ld	ra,8(sp)
    80000a88:	00040513          	mv	a0,s0
    80000a8c:	00013403          	ld	s0,0(sp)
    80000a90:	01010113          	addi	sp,sp,16
    80000a94:	00008067          	ret

0000000080000a98 <events_read>:
    80000a98:	fe010113          	addi	sp,sp,-32
    80000a9c:	00813823          	sd	s0,16(sp)
    80000aa0:	00810593          	addi	a1,sp,8
    80000aa4:	00050413          	mv	s0,a0
    80000aa8:	00800513          	li	a0,8
    80000aac:	00113c23          	sd	ra,24(sp)
    80000ab0:	3b4000ef          	jal	ra,80000e64 <ioe_read>
    80000ab4:	00c12783          	lw	a5,12(sp)
    80000ab8:	00814683          	lbu	a3,8(sp)
    80000abc:	06078263          	beqz	a5,80000b20 <events_read+0x88>
    80000ac0:	00379793          	slli	a5,a5,0x3
    80000ac4:	01ad2717          	auipc	a4,0x1ad2
    80000ac8:	31470713          	addi	a4,a4,788 # 81ad2dd8 <keyname>
    80000acc:	00f707b3          	add	a5,a4,a5
    80000ad0:	0007b603          	ld	a2,0(a5)
    80000ad4:	02069463          	bnez	a3,80000afc <events_read+0x64>
    80000ad8:	00040513          	mv	a0,s0
    80000adc:	00002597          	auipc	a1,0x2
    80000ae0:	ae458593          	addi	a1,a1,-1308 # 800025c0 <__func__.1+0xd0>
    80000ae4:	165000ef          	jal	ra,80001448 <sprintf>
    80000ae8:	00040513          	mv	a0,s0
    80000aec:	01013403          	ld	s0,16(sp)
    80000af0:	01813083          	ld	ra,24(sp)
    80000af4:	02010113          	addi	sp,sp,32
    80000af8:	2fd0006f          	j	800015f4 <strlen>
    80000afc:	00040513          	mv	a0,s0
    80000b00:	00002597          	auipc	a1,0x2
    80000b04:	ab858593          	addi	a1,a1,-1352 # 800025b8 <__func__.1+0xc8>
    80000b08:	141000ef          	jal	ra,80001448 <sprintf>
    80000b0c:	00040513          	mv	a0,s0
    80000b10:	01013403          	ld	s0,16(sp)
    80000b14:	01813083          	ld	ra,24(sp)
    80000b18:	02010113          	addi	sp,sp,32
    80000b1c:	2d90006f          	j	800015f4 <strlen>
    80000b20:	00040513          	mv	a0,s0
    80000b24:	00001597          	auipc	a1,0x1
    80000b28:	c9c58593          	addi	a1,a1,-868 # 800017c0 <_etext+0x1c>
    80000b2c:	11d000ef          	jal	ra,80001448 <sprintf>
    80000b30:	01813083          	ld	ra,24(sp)
    80000b34:	01013403          	ld	s0,16(sp)
    80000b38:	00100513          	li	a0,1
    80000b3c:	02010113          	addi	sp,sp,32
    80000b40:	00008067          	ret

0000000080000b44 <dispinfo_read>:
    80000b44:	fd010113          	addi	sp,sp,-48
    80000b48:	00913c23          	sd	s1,24(sp)
    80000b4c:	00010593          	mv	a1,sp
    80000b50:	00050493          	mv	s1,a0
    80000b54:	00900513          	li	a0,9
    80000b58:	02113423          	sd	ra,40(sp)
    80000b5c:	02813023          	sd	s0,32(sp)
    80000b60:	00060413          	mv	s0,a2
    80000b64:	300000ef          	jal	ra,80000e64 <ioe_read>
    80000b68:	00812683          	lw	a3,8(sp)
    80000b6c:	00412603          	lw	a2,4(sp)
    80000b70:	00048513          	mv	a0,s1
    80000b74:	00002597          	auipc	a1,0x2
    80000b78:	a5458593          	addi	a1,a1,-1452 # 800025c8 <__func__.1+0xd8>
    80000b7c:	0cd000ef          	jal	ra,80001448 <sprintf>
    80000b80:	02813083          	ld	ra,40(sp)
    80000b84:	00040513          	mv	a0,s0
    80000b88:	02013403          	ld	s0,32(sp)
    80000b8c:	01813483          	ld	s1,24(sp)
    80000b90:	03010113          	addi	sp,sp,48
    80000b94:	00008067          	ret

0000000080000b98 <fb_write>:
    80000b98:	fc010113          	addi	sp,sp,-64
    80000b9c:	02813823          	sd	s0,48(sp)
    80000ba0:	03213023          	sd	s2,32(sp)
    80000ba4:	00058413          	mv	s0,a1
    80000ba8:	00050913          	mv	s2,a0
    80000bac:	00010593          	mv	a1,sp
    80000bb0:	00900513          	li	a0,9
    80000bb4:	02113c23          	sd	ra,56(sp)
    80000bb8:	02913423          	sd	s1,40(sp)
    80000bbc:	00060493          	mv	s1,a2
    80000bc0:	2a4000ef          	jal	ra,80000e64 <ioe_read>
    80000bc4:	00412783          	lw	a5,4(sp)
    80000bc8:	00100713          	li	a4,1
    80000bcc:	00010593          	mv	a1,sp
    80000bd0:	02f476b3          	remu	a3,s0,a5
    80000bd4:	00b00513          	li	a0,11
    80000bd8:	01213423          	sd	s2,8(sp)
    80000bdc:	00912823          	sw	s1,16(sp)
    80000be0:	00e12a23          	sw	a4,20(sp)
    80000be4:	00e10c23          	sb	a4,24(sp)
    80000be8:	02f45433          	divu	s0,s0,a5
    80000bec:	00d12023          	sw	a3,0(sp)
    80000bf0:	00812223          	sw	s0,4(sp)
    80000bf4:	28c000ef          	jal	ra,80000e80 <ioe_write>
    80000bf8:	03813083          	ld	ra,56(sp)
    80000bfc:	03013403          	ld	s0,48(sp)
    80000c00:	02013903          	ld	s2,32(sp)
    80000c04:	00048513          	mv	a0,s1
    80000c08:	02813483          	ld	s1,40(sp)
    80000c0c:	04010113          	addi	sp,sp,64
    80000c10:	00008067          	ret

0000000080000c14 <gettimeofday>:
    80000c14:	fe010113          	addi	sp,sp,-32
    80000c18:	00600513          	li	a0,6
    80000c1c:	00810593          	addi	a1,sp,8
    80000c20:	00113c23          	sd	ra,24(sp)
    80000c24:	240000ef          	jal	ra,80000e64 <ioe_read>
    80000c28:	01813083          	ld	ra,24(sp)
    80000c2c:	00813503          	ld	a0,8(sp)
    80000c30:	02010113          	addi	sp,sp,32
    80000c34:	00008067          	ret

0000000080000c38 <init_device>:
    80000c38:	ff010113          	addi	sp,sp,-16
    80000c3c:	00002697          	auipc	a3,0x2
    80000c40:	cd468693          	addi	a3,a3,-812 # 80002910 <__func__.0>
    80000c44:	03f00613          	li	a2,63
    80000c48:	00002597          	auipc	a1,0x2
    80000c4c:	99858593          	addi	a1,a1,-1640 # 800025e0 <__func__.1+0xf0>
    80000c50:	00002517          	auipc	a0,0x2
    80000c54:	9c850513          	addi	a0,a0,-1592 # 80002618 <__func__.1+0x128>
    80000c58:	00113423          	sd	ra,8(sp)
    80000c5c:	678000ef          	jal	ra,800012d4 <printf>
    80000c60:	00813083          	ld	ra,8(sp)
    80000c64:	01010113          	addi	sp,sp,16
    80000c68:	1a00006f          	j	80000e08 <ioe_init>

0000000080000c6c <main>:
    80000c6c:	ff010113          	addi	sp,sp,-16
    80000c70:	00002597          	auipc	a1,0x2
    80000c74:	cac58593          	addi	a1,a1,-852 # 8000291c <logo>
    80000c78:	00002517          	auipc	a0,0x2
    80000c7c:	22850513          	addi	a0,a0,552 # 80002ea0 <logo+0x584>
    80000c80:	00113423          	sd	ra,8(sp)
    80000c84:	00813023          	sd	s0,0(sp)
    80000c88:	64c000ef          	jal	ra,800012d4 <printf>
    80000c8c:	00002417          	auipc	s0,0x2
    80000c90:	48c40413          	addi	s0,s0,1164 # 80003118 <__func__.0>
    80000c94:	00040693          	mv	a3,s0
    80000c98:	00d00613          	li	a2,13
    80000c9c:	00002597          	auipc	a1,0x2
    80000ca0:	20c58593          	addi	a1,a1,524 # 80002ea8 <logo+0x58c>
    80000ca4:	00002517          	auipc	a0,0x2
    80000ca8:	23c50513          	addi	a0,a0,572 # 80002ee0 <logo+0x5c4>
    80000cac:	628000ef          	jal	ra,800012d4 <printf>
    80000cb0:	00002797          	auipc	a5,0x2
    80000cb4:	26878793          	addi	a5,a5,616 # 80002f18 <logo+0x5fc>
    80000cb8:	00002717          	auipc	a4,0x2
    80000cbc:	27070713          	addi	a4,a4,624 # 80002f28 <logo+0x60c>
    80000cc0:	00e00613          	li	a2,14
    80000cc4:	00002597          	auipc	a1,0x2
    80000cc8:	1e458593          	addi	a1,a1,484 # 80002ea8 <logo+0x58c>
    80000ccc:	00040693          	mv	a3,s0
    80000cd0:	00002517          	auipc	a0,0x2
    80000cd4:	26850513          	addi	a0,a0,616 # 80002f38 <logo+0x61c>
    80000cd8:	5fc000ef          	jal	ra,800012d4 <printf>
    80000cdc:	d51ff0ef          	jal	ra,80000a2c <init_mm>
    80000ce0:	f59ff0ef          	jal	ra,80000c38 <init_device>
    80000ce4:	d24ff0ef          	jal	ra,80000208 <init_ramdisk>
    80000ce8:	bbcff0ef          	jal	ra,800000a4 <init_irq>
    80000cec:	e10ff0ef          	jal	ra,800002fc <init_fs>
    80000cf0:	9f9ff0ef          	jal	ra,800006e8 <init_proc>
    80000cf4:	00040693          	mv	a3,s0
    80000cf8:	01c00613          	li	a2,28
    80000cfc:	00002597          	auipc	a1,0x2
    80000d00:	1ac58593          	addi	a1,a1,428 # 80002ea8 <logo+0x58c>
    80000d04:	00002517          	auipc	a0,0x2
    80000d08:	26450513          	addi	a0,a0,612 # 80002f68 <logo+0x64c>
    80000d0c:	5c8000ef          	jal	ra,800012d4 <printf>
    80000d10:	47c000ef          	jal	ra,8000118c <yield>
    80000d14:	00040693          	mv	a3,s0
    80000d18:	02200613          	li	a2,34
    80000d1c:	00002597          	auipc	a1,0x2
    80000d20:	18c58593          	addi	a1,a1,396 # 80002ea8 <logo+0x58c>
    80000d24:	00002517          	auipc	a0,0x2
    80000d28:	27450513          	addi	a0,a0,628 # 80002f98 <logo+0x67c>
    80000d2c:	5a8000ef          	jal	ra,800012d4 <printf>
    80000d30:	00100513          	li	a0,1
    80000d34:	014000ef          	jal	ra,80000d48 <halt>

0000000080000d38 <putch>:
    80000d38:	00500793          	li	a5,5
    80000d3c:	01d79793          	slli	a5,a5,0x1d
    80000d40:	3ea78c23          	sb	a0,1016(a5)
    80000d44:	00008067          	ret

0000000080000d48 <halt>:
    80000d48:	00050513          	mv	a0,a0
    80000d4c:	00100073          	ebreak
    80000d50:	0000006f          	j	80000d50 <halt+0x8>

0000000080000d54 <_trm_init>:
    80000d54:	ff010113          	addi	sp,sp,-16
    80000d58:	00002517          	auipc	a0,0x2
    80000d5c:	3c850513          	addi	a0,a0,968 # 80003120 <mainargs>
    80000d60:	00113423          	sd	ra,8(sp)
    80000d64:	f09ff0ef          	jal	ra,80000c6c <main>
    80000d68:	00050513          	mv	a0,a0
    80000d6c:	00100073          	ebreak
    80000d70:	0000006f          	j	80000d70 <_trm_init+0x1c>

0000000080000d74 <__am_timer_config>:
    80000d74:	00100793          	li	a5,1
    80000d78:	00f50023          	sb	a5,0(a0)
    80000d7c:	00f500a3          	sb	a5,1(a0)
    80000d80:	00008067          	ret

0000000080000d84 <__am_input_config>:
    80000d84:	00100793          	li	a5,1
    80000d88:	00f50023          	sb	a5,0(a0)
    80000d8c:	00008067          	ret

0000000080000d90 <__am_uart_config>:
    80000d90:	00050023          	sb	zero,0(a0)
    80000d94:	00008067          	ret

0000000080000d98 <__am_net_config>:
    80000d98:	00050023          	sb	zero,0(a0)
    80000d9c:	00008067          	ret

0000000080000da0 <fail>:
    80000da0:	ff010113          	addi	sp,sp,-16
    80000da4:	00813023          	sd	s0,0(sp)
    80000da8:	00113423          	sd	ra,8(sp)
    80000dac:	00002417          	auipc	s0,0x2
    80000db0:	23440413          	addi	s0,s0,564 # 80002fe0 <logo+0x6c4>
    80000db4:	04100513          	li	a0,65
    80000db8:	00140413          	addi	s0,s0,1
    80000dbc:	f7dff0ef          	jal	ra,80000d38 <putch>
    80000dc0:	00044503          	lbu	a0,0(s0)
    80000dc4:	fe051ae3          	bnez	a0,80000db8 <fail+0x18>
    80000dc8:	00002417          	auipc	s0,0x2
    80000dcc:	22840413          	addi	s0,s0,552 # 80002ff0 <logo+0x6d4>
    80000dd0:	06100513          	li	a0,97
    80000dd4:	00140413          	addi	s0,s0,1
    80000dd8:	f61ff0ef          	jal	ra,80000d38 <putch>
    80000ddc:	00044503          	lbu	a0,0(s0)
    80000de0:	fe051ae3          	bnez	a0,80000dd4 <fail+0x34>
    80000de4:	00002417          	auipc	s0,0x2
    80000de8:	22c40413          	addi	s0,s0,556 # 80003010 <logo+0x6f4>
    80000dec:	02000513          	li	a0,32
    80000df0:	00140413          	addi	s0,s0,1
    80000df4:	f45ff0ef          	jal	ra,80000d38 <putch>
    80000df8:	00044503          	lbu	a0,0(s0)
    80000dfc:	fe051ae3          	bnez	a0,80000df0 <fail+0x50>
    80000e00:	00100513          	li	a0,1
    80000e04:	f45ff0ef          	jal	ra,80000d48 <halt>

0000000080000e08 <ioe_init>:
    80000e08:	ff010113          	addi	sp,sp,-16
    80000e0c:	00113423          	sd	ra,8(sp)
    80000e10:	01ad2797          	auipc	a5,0x1ad2
    80000e14:	7d878793          	addi	a5,a5,2008 # 81ad35e8 <lut>
    80000e18:	01ad3697          	auipc	a3,0x1ad3
    80000e1c:	bd068693          	addi	a3,a3,-1072 # 81ad39e8 <lut+0x400>
    80000e20:	00000617          	auipc	a2,0x0
    80000e24:	f8060613          	addi	a2,a2,-128 # 80000da0 <fail>
    80000e28:	00c0006f          	j	80000e34 <ioe_init+0x2c>
    80000e2c:	00878793          	addi	a5,a5,8
    80000e30:	00d78c63          	beq	a5,a3,80000e48 <ioe_init+0x40>
    80000e34:	0007b703          	ld	a4,0(a5)
    80000e38:	fe071ae3          	bnez	a4,80000e2c <ioe_init+0x24>
    80000e3c:	00c7b023          	sd	a2,0(a5)
    80000e40:	00878793          	addi	a5,a5,8
    80000e44:	fed798e3          	bne	a5,a3,80000e34 <ioe_init+0x2c>
    80000e48:	0f8000ef          	jal	ra,80000f40 <__am_gpu_init>
    80000e4c:	050000ef          	jal	ra,80000e9c <__am_timer_init>
    80000e50:	248000ef          	jal	ra,80001098 <__am_audio_init>
    80000e54:	00813083          	ld	ra,8(sp)
    80000e58:	00100513          	li	a0,1
    80000e5c:	01010113          	addi	sp,sp,16
    80000e60:	00008067          	ret

0000000080000e64 <ioe_read>:
    80000e64:	00351513          	slli	a0,a0,0x3
    80000e68:	01ad2797          	auipc	a5,0x1ad2
    80000e6c:	78078793          	addi	a5,a5,1920 # 81ad35e8 <lut>
    80000e70:	00a787b3          	add	a5,a5,a0
    80000e74:	0007b783          	ld	a5,0(a5)
    80000e78:	00058513          	mv	a0,a1
    80000e7c:	00078067          	jr	a5

0000000080000e80 <ioe_write>:
    80000e80:	00351513          	slli	a0,a0,0x3
    80000e84:	01ad2797          	auipc	a5,0x1ad2
    80000e88:	76478793          	addi	a5,a5,1892 # 81ad35e8 <lut>
    80000e8c:	00a787b3          	add	a5,a5,a0
    80000e90:	0007b783          	ld	a5,0(a5)
    80000e94:	00058513          	mv	a0,a1
    80000e98:	00078067          	jr	a5

0000000080000e9c <__am_timer_init>:
    80000e9c:	00500793          	li	a5,5
    80000ea0:	01d79793          	slli	a5,a5,0x1d
    80000ea4:	0487b783          	ld	a5,72(a5)
    80000ea8:	01adb717          	auipc	a4,0x1adb
    80000eac:	16f73023          	sd	a5,352(a4) # 81adc008 <init_time>
    80000eb0:	00008067          	ret

0000000080000eb4 <__am_timer_uptime>:
    80000eb4:	00500713          	li	a4,5
    80000eb8:	01d71713          	slli	a4,a4,0x1d
    80000ebc:	04872783          	lw	a5,72(a4)
    80000ec0:	04c72703          	lw	a4,76(a4)
    80000ec4:	01adb697          	auipc	a3,0x1adb
    80000ec8:	1446b683          	ld	a3,324(a3) # 81adc008 <init_time>
    80000ecc:	02079793          	slli	a5,a5,0x20
    80000ed0:	0207d793          	srli	a5,a5,0x20
    80000ed4:	40d787b3          	sub	a5,a5,a3
    80000ed8:	02071713          	slli	a4,a4,0x20
    80000edc:	00e787b3          	add	a5,a5,a4
    80000ee0:	00f53023          	sd	a5,0(a0)
    80000ee4:	00008067          	ret

0000000080000ee8 <__am_timer_rtc>:
    80000ee8:	76c00793          	li	a5,1900
    80000eec:	00052a23          	sw	zero,20(a0)
    80000ef0:	00052823          	sw	zero,16(a0)
    80000ef4:	00052623          	sw	zero,12(a0)
    80000ef8:	00052423          	sw	zero,8(a0)
    80000efc:	00052223          	sw	zero,4(a0)
    80000f00:	00f52023          	sw	a5,0(a0)
    80000f04:	00008067          	ret

0000000080000f08 <__am_input_keybrd>:
    80000f08:	00500793          	li	a5,5
    80000f0c:	01d79793          	slli	a5,a5,0x1d
    80000f10:	0607a783          	lw	a5,96(a5)
    80000f14:	00050023          	sb	zero,0(a0)
    80000f18:	00f7d713          	srli	a4,a5,0xf
    80000f1c:	00f52223          	sw	a5,4(a0)
    80000f20:	00177713          	andi	a4,a4,1
    80000f24:	00070c63          	beqz	a4,80000f3c <__am_input_keybrd+0x34>
    80000f28:	03479793          	slli	a5,a5,0x34
    80000f2c:	0347d793          	srli	a5,a5,0x34
    80000f30:	00100713          	li	a4,1
    80000f34:	00e50023          	sb	a4,0(a0)
    80000f38:	00f52223          	sw	a5,4(a0)
    80000f3c:	00008067          	ret

0000000080000f40 <__am_gpu_init>:
    80000f40:	00500793          	li	a5,5
    80000f44:	01d79793          	slli	a5,a5,0x1d
    80000f48:	1027d683          	lhu	a3,258(a5)
    80000f4c:	1007d783          	lhu	a5,256(a5)
    80000f50:	02f686bb          	mulw	a3,a3,a5
    80000f54:	02068063          	beqz	a3,80000f74 <__am_gpu_init+0x34>
    80000f58:	0a100713          	li	a4,161
    80000f5c:	01871713          	slli	a4,a4,0x18
    80000f60:	00000793          	li	a5,0
    80000f64:	00f72023          	sw	a5,0(a4)
    80000f68:	0017879b          	addiw	a5,a5,1
    80000f6c:	00470713          	addi	a4,a4,4
    80000f70:	fed79ae3          	bne	a5,a3,80000f64 <__am_gpu_init+0x24>
    80000f74:	00500793          	li	a5,5
    80000f78:	01d79793          	slli	a5,a5,0x1d
    80000f7c:	00100713          	li	a4,1
    80000f80:	10e7a223          	sw	a4,260(a5)
    80000f84:	00008067          	ret

0000000080000f88 <__am_gpu_config>:
    80000f88:	00500793          	li	a5,5
    80000f8c:	01d79793          	slli	a5,a5,0x1d
    80000f90:	1027d703          	lhu	a4,258(a5)
    80000f94:	1007d783          	lhu	a5,256(a5)
    80000f98:	00100693          	li	a3,1
    80000f9c:	00d51023          	sh	a3,0(a0)
    80000fa0:	00e52223          	sw	a4,4(a0)
    80000fa4:	00f52423          	sw	a5,8(a0)
    80000fa8:	00052623          	sw	zero,12(a0)
    80000fac:	00008067          	ret

0000000080000fb0 <__am_gpu_fbdraw>:
    80000fb0:	fe010113          	addi	sp,sp,-32
    80000fb4:	00813823          	sd	s0,16(sp)
    80000fb8:	00010593          	mv	a1,sp
    80000fbc:	00050413          	mv	s0,a0
    80000fc0:	00900513          	li	a0,9
    80000fc4:	00113c23          	sd	ra,24(sp)
    80000fc8:	e9dff0ef          	jal	ra,80000e64 <ioe_read>
    80000fcc:	01442783          	lw	a5,20(s0)
    80000fd0:	00412303          	lw	t1,4(sp)
    80000fd4:	00812803          	lw	a6,8(sp)
    80000fd8:	08f05663          	blez	a5,80001064 <__am_gpu_fbdraw+0xb4>
    80000fdc:	01042683          	lw	a3,16(s0)
    80000fe0:	00000513          	li	a0,0
    80000fe4:	a1000e37          	lui	t3,0xa1000
    80000fe8:	00000713          	li	a4,0
    80000fec:	00000613          	li	a2,0
    80000ff0:	06d05663          	blez	a3,8000105c <__am_gpu_fbdraw+0xac>
    80000ff4:	00442783          	lw	a5,4(s0)
    80000ff8:	00a785bb          	addw	a1,a5,a0
    80000ffc:	00058793          	mv	a5,a1
    80001000:	0505d663          	bge	a1,a6,8000104c <__am_gpu_fbdraw+0x9c>
    80001004:	00042583          	lw	a1,0(s0)
    80001008:	00c588bb          	addw	a7,a1,a2
    8000100c:	0468d063          	bge	a7,t1,8000104c <__am_gpu_fbdraw+0x9c>
    80001010:	02a686bb          	mulw	a3,a3,a0
    80001014:	00843883          	ld	a7,8(s0)
    80001018:	026787bb          	mulw	a5,a5,t1
    8000101c:	00e686b3          	add	a3,a3,a4
    80001020:	00269693          	slli	a3,a3,0x2
    80001024:	00d886b3          	add	a3,a7,a3
    80001028:	0006a683          	lw	a3,0(a3)
    8000102c:	00b787bb          	addw	a5,a5,a1
    80001030:	00c787bb          	addw	a5,a5,a2
    80001034:	0027979b          	slliw	a5,a5,0x2
    80001038:	01c787bb          	addw	a5,a5,t3
    8000103c:	02079793          	slli	a5,a5,0x20
    80001040:	0207d793          	srli	a5,a5,0x20
    80001044:	00d7a023          	sw	a3,0(a5)
    80001048:	01042683          	lw	a3,16(s0)
    8000104c:	00170713          	addi	a4,a4,1
    80001050:	0007061b          	sext.w	a2,a4
    80001054:	fad640e3          	blt	a2,a3,80000ff4 <__am_gpu_fbdraw+0x44>
    80001058:	01442783          	lw	a5,20(s0)
    8000105c:	0015051b          	addiw	a0,a0,1
    80001060:	f8f544e3          	blt	a0,a5,80000fe8 <__am_gpu_fbdraw+0x38>
    80001064:	01844783          	lbu	a5,24(s0)
    80001068:	00078a63          	beqz	a5,8000107c <__am_gpu_fbdraw+0xcc>
    8000106c:	00500793          	li	a5,5
    80001070:	01d79793          	slli	a5,a5,0x1d
    80001074:	00100713          	li	a4,1
    80001078:	10e7a223          	sw	a4,260(a5)
    8000107c:	01813083          	ld	ra,24(sp)
    80001080:	01013403          	ld	s0,16(sp)
    80001084:	02010113          	addi	sp,sp,32
    80001088:	00008067          	ret

000000008000108c <__am_gpu_status>:
    8000108c:	00100793          	li	a5,1
    80001090:	00f50023          	sb	a5,0(a0)
    80001094:	00008067          	ret

0000000080001098 <__am_audio_init>:
    80001098:	00008067          	ret

000000008000109c <__am_audio_config>:
    8000109c:	00050023          	sb	zero,0(a0)
    800010a0:	00008067          	ret

00000000800010a4 <__am_audio_ctrl>:
    800010a4:	00008067          	ret

00000000800010a8 <__am_audio_status>:
    800010a8:	00052023          	sw	zero,0(a0)
    800010ac:	00008067          	ret

00000000800010b0 <__am_audio_play>:
    800010b0:	00008067          	ret

00000000800010b4 <__am_disk_config>:
    800010b4:	00050023          	sb	zero,0(a0)
    800010b8:	00008067          	ret

00000000800010bc <__am_disk_status>:
    800010bc:	00008067          	ret

00000000800010c0 <__am_disk_blkio>:
    800010c0:	00008067          	ret

00000000800010c4 <__am_irq_handle>:
    800010c4:	01adb797          	auipc	a5,0x1adb
    800010c8:	f4c7b783          	ld	a5,-180(a5) # 81adc010 <user_handler>
    800010cc:	00050593          	mv	a1,a0
    800010d0:	06078c63          	beqz	a5,80001148 <__am_irq_handle+0x84>
    800010d4:	10053683          	ld	a3,256(a0)
    800010d8:	fb010113          	addi	sp,sp,-80
    800010dc:	04113423          	sd	ra,72(sp)
    800010e0:	02013023          	sd	zero,32(sp)
    800010e4:	02013423          	sd	zero,40(sp)
    800010e8:	02013823          	sd	zero,48(sp)
    800010ec:	02013c23          	sd	zero,56(sp)
    800010f0:	01300613          	li	a2,19
    800010f4:	00200713          	li	a4,2
    800010f8:	00d67a63          	bgeu	a2,a3,8000110c <__am_irq_handle+0x48>
    800010fc:	fff00613          	li	a2,-1
    80001100:	00400713          	li	a4,4
    80001104:	00c69463          	bne	a3,a2,8000110c <__am_irq_handle+0x48>
    80001108:	00100713          	li	a4,1
    8000110c:	02e12023          	sw	a4,32(sp)
    80001110:	02013703          	ld	a4,32(sp)
    80001114:	00010513          	mv	a0,sp
    80001118:	00e13023          	sd	a4,0(sp)
    8000111c:	02813703          	ld	a4,40(sp)
    80001120:	00e13423          	sd	a4,8(sp)
    80001124:	03013703          	ld	a4,48(sp)
    80001128:	00e13823          	sd	a4,16(sp)
    8000112c:	03813703          	ld	a4,56(sp)
    80001130:	00e13c23          	sd	a4,24(sp)
    80001134:	000780e7          	jalr	a5
    80001138:	00050a63          	beqz	a0,8000114c <__am_irq_handle+0x88>
    8000113c:	04813083          	ld	ra,72(sp)
    80001140:	05010113          	addi	sp,sp,80
    80001144:	00008067          	ret
    80001148:	00008067          	ret
    8000114c:	01500613          	li	a2,21
    80001150:	00002597          	auipc	a1,0x2
    80001154:	f1858593          	addi	a1,a1,-232 # 80003068 <logo+0x74c>
    80001158:	00002517          	auipc	a0,0x2
    8000115c:	f5850513          	addi	a0,a0,-168 # 800030b0 <logo+0x794>
    80001160:	174000ef          	jal	ra,800012d4 <printf>
    80001164:	00100513          	li	a0,1
    80001168:	be1ff0ef          	jal	ra,80000d48 <halt>

000000008000116c <cte_init>:
    8000116c:	00050793          	mv	a5,a0
    80001170:	00000717          	auipc	a4,0x0
    80001174:	02870713          	addi	a4,a4,40 # 80001198 <__am_asm_trap>
    80001178:	30571073          	csrw	mtvec,a4
    8000117c:	00100513          	li	a0,1
    80001180:	01adb717          	auipc	a4,0x1adb
    80001184:	e8f73823          	sd	a5,-368(a4) # 81adc010 <user_handler>
    80001188:	00008067          	ret

000000008000118c <yield>:
    8000118c:	fff00893          	li	a7,-1
    80001190:	00000073          	ecall
    80001194:	00008067          	ret

0000000080001198 <__am_asm_trap>:
    80001198:	ee010113          	addi	sp,sp,-288
    8000119c:	00113423          	sd	ra,8(sp)
    800011a0:	00313c23          	sd	gp,24(sp)
    800011a4:	02413023          	sd	tp,32(sp)
    800011a8:	02513423          	sd	t0,40(sp)
    800011ac:	02613823          	sd	t1,48(sp)
    800011b0:	02713c23          	sd	t2,56(sp)
    800011b4:	04813023          	sd	s0,64(sp)
    800011b8:	04913423          	sd	s1,72(sp)
    800011bc:	04a13823          	sd	a0,80(sp)
    800011c0:	04b13c23          	sd	a1,88(sp)
    800011c4:	06c13023          	sd	a2,96(sp)
    800011c8:	06d13423          	sd	a3,104(sp)
    800011cc:	06e13823          	sd	a4,112(sp)
    800011d0:	06f13c23          	sd	a5,120(sp)
    800011d4:	09013023          	sd	a6,128(sp)
    800011d8:	09113423          	sd	a7,136(sp)
    800011dc:	09213823          	sd	s2,144(sp)
    800011e0:	09313c23          	sd	s3,152(sp)
    800011e4:	0b413023          	sd	s4,160(sp)
    800011e8:	0b513423          	sd	s5,168(sp)
    800011ec:	0b613823          	sd	s6,176(sp)
    800011f0:	0b713c23          	sd	s7,184(sp)
    800011f4:	0d813023          	sd	s8,192(sp)
    800011f8:	0d913423          	sd	s9,200(sp)
    800011fc:	0da13823          	sd	s10,208(sp)
    80001200:	0db13c23          	sd	s11,216(sp)
    80001204:	0fc13023          	sd	t3,224(sp)
    80001208:	0fd13423          	sd	t4,232(sp)
    8000120c:	0fe13823          	sd	t5,240(sp)
    80001210:	0ff13c23          	sd	t6,248(sp)
    80001214:	342022f3          	csrr	t0,mcause
    80001218:	30002373          	csrr	t1,mstatus
    8000121c:	341023f3          	csrr	t2,mepc
    80001220:	10513023          	sd	t0,256(sp)
    80001224:	10613423          	sd	t1,264(sp)
    80001228:	10713823          	sd	t2,272(sp)
    8000122c:	00020537          	lui	a0,0x20
    80001230:	00a36333          	or	t1,t1,a0
    80001234:	30031073          	csrw	mstatus,t1
    80001238:	00010513          	mv	a0,sp
    8000123c:	e89ff0ef          	jal	ra,800010c4 <__am_irq_handle>
    80001240:	10813303          	ld	t1,264(sp)
    80001244:	11013383          	ld	t2,272(sp)
    80001248:	30031073          	csrw	mstatus,t1
    8000124c:	00438393          	addi	t2,t2,4
    80001250:	34139073          	csrw	mepc,t2
    80001254:	00813083          	ld	ra,8(sp)
    80001258:	01813183          	ld	gp,24(sp)
    8000125c:	02013203          	ld	tp,32(sp)
    80001260:	02813283          	ld	t0,40(sp)
    80001264:	03013303          	ld	t1,48(sp)
    80001268:	03813383          	ld	t2,56(sp)
    8000126c:	04013403          	ld	s0,64(sp)
    80001270:	04813483          	ld	s1,72(sp)
    80001274:	05013503          	ld	a0,80(sp)
    80001278:	05813583          	ld	a1,88(sp)
    8000127c:	06013603          	ld	a2,96(sp)
    80001280:	06813683          	ld	a3,104(sp)
    80001284:	07013703          	ld	a4,112(sp)
    80001288:	07813783          	ld	a5,120(sp)
    8000128c:	08013803          	ld	a6,128(sp)
    80001290:	08813883          	ld	a7,136(sp)
    80001294:	09013903          	ld	s2,144(sp)
    80001298:	09813983          	ld	s3,152(sp)
    8000129c:	0a013a03          	ld	s4,160(sp)
    800012a0:	0a813a83          	ld	s5,168(sp)
    800012a4:	0b013b03          	ld	s6,176(sp)
    800012a8:	0b813b83          	ld	s7,184(sp)
    800012ac:	0c013c03          	ld	s8,192(sp)
    800012b0:	0c813c83          	ld	s9,200(sp)
    800012b4:	0d013d03          	ld	s10,208(sp)
    800012b8:	0d813d83          	ld	s11,216(sp)
    800012bc:	0e013e03          	ld	t3,224(sp)
    800012c0:	0e813e83          	ld	t4,232(sp)
    800012c4:	0f013f03          	ld	t5,240(sp)
    800012c8:	0f813f83          	ld	t6,248(sp)
    800012cc:	12010113          	addi	sp,sp,288
    800012d0:	30200073          	mret

00000000800012d4 <printf>:
    800012d4:	f1010113          	addi	sp,sp,-240
    800012d8:	09213823          	sd	s2,144(sp)
    800012dc:	0a113423          	sd	ra,168(sp)
    800012e0:	0a813023          	sd	s0,160(sp)
    800012e4:	08913c23          	sd	s1,152(sp)
    800012e8:	09313423          	sd	s3,136(sp)
    800012ec:	09413023          	sd	s4,128(sp)
    800012f0:	07513c23          	sd	s5,120(sp)
    800012f4:	07613823          	sd	s6,112(sp)
    800012f8:	00050913          	mv	s2,a0
    800012fc:	00054503          	lbu	a0,0(a0) # 20000 <_entry_offset+0x20000>
    80001300:	0cf13c23          	sd	a5,216(sp)
    80001304:	0b810793          	addi	a5,sp,184
    80001308:	0ab13c23          	sd	a1,184(sp)
    8000130c:	0cc13023          	sd	a2,192(sp)
    80001310:	0cd13423          	sd	a3,200(sp)
    80001314:	0ce13823          	sd	a4,208(sp)
    80001318:	0f013023          	sd	a6,224(sp)
    8000131c:	0f113423          	sd	a7,232(sp)
    80001320:	00f13023          	sd	a5,0(sp)
    80001324:	02050e63          	beqz	a0,80001360 <printf+0x8c>
    80001328:	00000413          	li	s0,0
    8000132c:	02500993          	li	s3,37
    80001330:	07300a13          	li	s4,115
    80001334:	06400a93          	li	s5,100
    80001338:	0d351e63          	bne	a0,s3,80001414 <printf+0x140>
    8000133c:	0014041b          	addiw	s0,s0,1
    80001340:	00890b33          	add	s6,s2,s0
    80001344:	000b4783          	lbu	a5,0(s6)
    80001348:	05478263          	beq	a5,s4,8000138c <printf+0xb8>
    8000134c:	07578a63          	beq	a5,s5,800013c0 <printf+0xec>
    80001350:	0014041b          	addiw	s0,s0,1
    80001354:	008907b3          	add	a5,s2,s0
    80001358:	0007c503          	lbu	a0,0(a5)
    8000135c:	fc051ee3          	bnez	a0,80001338 <printf+0x64>
    80001360:	0a813083          	ld	ra,168(sp)
    80001364:	0a013403          	ld	s0,160(sp)
    80001368:	09813483          	ld	s1,152(sp)
    8000136c:	09013903          	ld	s2,144(sp)
    80001370:	08813983          	ld	s3,136(sp)
    80001374:	08013a03          	ld	s4,128(sp)
    80001378:	07813a83          	ld	s5,120(sp)
    8000137c:	07013b03          	ld	s6,112(sp)
    80001380:	00000513          	li	a0,0
    80001384:	0f010113          	addi	sp,sp,240
    80001388:	00008067          	ret
    8000138c:	00013783          	ld	a5,0(sp)
    80001390:	0007b483          	ld	s1,0(a5)
    80001394:	00878793          	addi	a5,a5,8
    80001398:	00f13023          	sd	a5,0(sp)
    8000139c:	0004c503          	lbu	a0,0(s1)
    800013a0:	fa0508e3          	beqz	a0,80001350 <printf+0x7c>
    800013a4:	00148493          	addi	s1,s1,1
    800013a8:	00148493          	addi	s1,s1,1
    800013ac:	98dff0ef          	jal	ra,80000d38 <putch>
    800013b0:	fff4c503          	lbu	a0,-1(s1)
    800013b4:	fe051ae3          	bnez	a0,800013a8 <printf+0xd4>
    800013b8:	000b4783          	lbu	a5,0(s6)
    800013bc:	f9579ae3          	bne	a5,s5,80001350 <printf+0x7c>
    800013c0:	00013783          	ld	a5,0(sp)
    800013c4:	00013423          	sd	zero,8(sp)
    800013c8:	00013823          	sd	zero,16(sp)
    800013cc:	0007a503          	lw	a0,0(a5)
    800013d0:	00878793          	addi	a5,a5,8
    800013d4:	00013c23          	sd	zero,24(sp)
    800013d8:	02013023          	sd	zero,32(sp)
    800013dc:	02013423          	sd	zero,40(sp)
    800013e0:	02013823          	sd	zero,48(sp)
    800013e4:	02013c23          	sd	zero,56(sp)
    800013e8:	04013023          	sd	zero,64(sp)
    800013ec:	04013423          	sd	zero,72(sp)
    800013f0:	04013823          	sd	zero,80(sp)
    800013f4:	04013c23          	sd	zero,88(sp)
    800013f8:	06013023          	sd	zero,96(sp)
    800013fc:	06012423          	sw	zero,104(sp)
    80001400:	00f13023          	sd	a5,0(sp)
    80001404:	00051c63          	bnez	a0,8000141c <printf+0x148>
    80001408:	03000513          	li	a0,48
    8000140c:	92dff0ef          	jal	ra,80000d38 <putch>
    80001410:	f41ff06f          	j	80001350 <printf+0x7c>
    80001414:	925ff0ef          	jal	ra,80000d38 <putch>
    80001418:	f39ff06f          	j	80001350 <printf+0x7c>
    8000141c:	00a00613          	li	a2,10
    80001420:	00810593          	addi	a1,sp,8
    80001424:	274000ef          	jal	ra,80001698 <itoa>
    80001428:	00814503          	lbu	a0,8(sp)
    8000142c:	00910493          	addi	s1,sp,9
    80001430:	f20500e3          	beqz	a0,80001350 <printf+0x7c>
    80001434:	00148493          	addi	s1,s1,1
    80001438:	901ff0ef          	jal	ra,80000d38 <putch>
    8000143c:	fff4c503          	lbu	a0,-1(s1)
    80001440:	fe051ae3          	bnez	a0,80001434 <printf+0x160>
    80001444:	f0dff06f          	j	80001350 <printf+0x7c>

0000000080001448 <sprintf>:
    80001448:	f2010113          	addi	sp,sp,-224
    8000144c:	09213823          	sd	s2,144(sp)
    80001450:	0a113423          	sd	ra,168(sp)
    80001454:	0a813023          	sd	s0,160(sp)
    80001458:	08913c23          	sd	s1,152(sp)
    8000145c:	09313423          	sd	s3,136(sp)
    80001460:	09413023          	sd	s4,128(sp)
    80001464:	07513c23          	sd	s5,120(sp)
    80001468:	07613823          	sd	s6,112(sp)
    8000146c:	0005c303          	lbu	t1,0(a1)
    80001470:	0cf13423          	sd	a5,200(sp)
    80001474:	0b010793          	addi	a5,sp,176
    80001478:	0ac13823          	sd	a2,176(sp)
    8000147c:	0ad13c23          	sd	a3,184(sp)
    80001480:	0ce13023          	sd	a4,192(sp)
    80001484:	0d013823          	sd	a6,208(sp)
    80001488:	0d113c23          	sd	a7,216(sp)
    8000148c:	00f13023          	sd	a5,0(sp)
    80001490:	00050913          	mv	s2,a0
    80001494:	04030063          	beqz	t1,800014d4 <sprintf+0x8c>
    80001498:	00058993          	mv	s3,a1
    8000149c:	00000493          	li	s1,0
    800014a0:	00000413          	li	s0,0
    800014a4:	02500a13          	li	s4,37
    800014a8:	07300a93          	li	s5,115
    800014ac:	06400b13          	li	s6,100
    800014b0:	05430a63          	beq	t1,s4,80001504 <sprintf+0xbc>
    800014b4:	009907b3          	add	a5,s2,s1
    800014b8:	00678023          	sb	t1,0(a5)
    800014bc:	0014849b          	addiw	s1,s1,1
    800014c0:	0014041b          	addiw	s0,s0,1
    800014c4:	008987b3          	add	a5,s3,s0
    800014c8:	0007c303          	lbu	t1,0(a5)
    800014cc:	fe0312e3          	bnez	t1,800014b0 <sprintf+0x68>
    800014d0:	00990933          	add	s2,s2,s1
    800014d4:	00090023          	sb	zero,0(s2)
    800014d8:	0a813083          	ld	ra,168(sp)
    800014dc:	0a013403          	ld	s0,160(sp)
    800014e0:	09813483          	ld	s1,152(sp)
    800014e4:	09013903          	ld	s2,144(sp)
    800014e8:	08813983          	ld	s3,136(sp)
    800014ec:	08013a03          	ld	s4,128(sp)
    800014f0:	07813a83          	ld	s5,120(sp)
    800014f4:	07013b03          	ld	s6,112(sp)
    800014f8:	00000513          	li	a0,0
    800014fc:	0e010113          	addi	sp,sp,224
    80001500:	00008067          	ret
    80001504:	0014041b          	addiw	s0,s0,1
    80001508:	008985b3          	add	a1,s3,s0
    8000150c:	0005c783          	lbu	a5,0(a1)
    80001510:	09578863          	beq	a5,s5,800015a0 <sprintf+0x158>
    80001514:	fb6796e3          	bne	a5,s6,800014c0 <sprintf+0x78>
    80001518:	00013783          	ld	a5,0(sp)
    8000151c:	00a00613          	li	a2,10
    80001520:	00810593          	addi	a1,sp,8
    80001524:	0007a503          	lw	a0,0(a5)
    80001528:	00878793          	addi	a5,a5,8
    8000152c:	00013423          	sd	zero,8(sp)
    80001530:	00013823          	sd	zero,16(sp)
    80001534:	00013c23          	sd	zero,24(sp)
    80001538:	02013023          	sd	zero,32(sp)
    8000153c:	02013423          	sd	zero,40(sp)
    80001540:	02013823          	sd	zero,48(sp)
    80001544:	02013c23          	sd	zero,56(sp)
    80001548:	04013023          	sd	zero,64(sp)
    8000154c:	04013423          	sd	zero,72(sp)
    80001550:	04013823          	sd	zero,80(sp)
    80001554:	04013c23          	sd	zero,88(sp)
    80001558:	06013023          	sd	zero,96(sp)
    8000155c:	06012423          	sw	zero,104(sp)
    80001560:	00f13023          	sd	a5,0(sp)
    80001564:	134000ef          	jal	ra,80001698 <itoa>
    80001568:	00814683          	lbu	a3,8(sp)
    8000156c:	06068e63          	beqz	a3,800015e8 <sprintf+0x1a0>
    80001570:	0014879b          	addiw	a5,s1,1
    80001574:	00f90633          	add	a2,s2,a5
    80001578:	0007859b          	sext.w	a1,a5
    8000157c:	00178793          	addi	a5,a5,1
    80001580:	40978733          	sub	a4,a5,s1
    80001584:	00810513          	addi	a0,sp,8
    80001588:	00e50733          	add	a4,a0,a4
    8000158c:	fed60fa3          	sb	a3,-1(a2)
    80001590:	fff74683          	lbu	a3,-1(a4)
    80001594:	fe0690e3          	bnez	a3,80001574 <sprintf+0x12c>
    80001598:	00058493          	mv	s1,a1
    8000159c:	f25ff06f          	j	800014c0 <sprintf+0x78>
    800015a0:	00013783          	ld	a5,0(sp)
    800015a4:	0007b703          	ld	a4,0(a5)
    800015a8:	00878793          	addi	a5,a5,8
    800015ac:	00f13023          	sd	a5,0(sp)
    800015b0:	00074683          	lbu	a3,0(a4)
    800015b4:	f00686e3          	beqz	a3,800014c0 <sprintf+0x78>
    800015b8:	0014879b          	addiw	a5,s1,1
    800015bc:	00170713          	addi	a4,a4,1
    800015c0:	00f90633          	add	a2,s2,a5
    800015c4:	fed60fa3          	sb	a3,-1(a2)
    800015c8:	00074683          	lbu	a3,0(a4)
    800015cc:	0007849b          	sext.w	s1,a5
    800015d0:	00170713          	addi	a4,a4,1
    800015d4:	00178793          	addi	a5,a5,1
    800015d8:	fe0694e3          	bnez	a3,800015c0 <sprintf+0x178>
    800015dc:	0005c783          	lbu	a5,0(a1)
    800015e0:	ef6790e3          	bne	a5,s6,800014c0 <sprintf+0x78>
    800015e4:	f35ff06f          	j	80001518 <sprintf+0xd0>
    800015e8:	00048593          	mv	a1,s1
    800015ec:	00058493          	mv	s1,a1
    800015f0:	ed1ff06f          	j	800014c0 <sprintf+0x78>

00000000800015f4 <strlen>:
    800015f4:	00054783          	lbu	a5,0(a0)
    800015f8:	00050693          	mv	a3,a0
    800015fc:	02078063          	beqz	a5,8000161c <strlen+0x28>
    80001600:	00100793          	li	a5,1
    80001604:	00078513          	mv	a0,a5
    80001608:	00178793          	addi	a5,a5,1
    8000160c:	00f68733          	add	a4,a3,a5
    80001610:	fff74703          	lbu	a4,-1(a4)
    80001614:	fe0718e3          	bnez	a4,80001604 <strlen+0x10>
    80001618:	00008067          	ret
    8000161c:	00000513          	li	a0,0
    80001620:	00008067          	ret

0000000080001624 <strcmp>:
    80001624:	00054703          	lbu	a4,0(a0)
    80001628:	02070e63          	beqz	a4,80001664 <strcmp+0x40>
    8000162c:	00000793          	li	a5,0
    80001630:	00c0006f          	j	8000163c <strcmp+0x18>
    80001634:	00064703          	lbu	a4,0(a2)
    80001638:	02070463          	beqz	a4,80001660 <strcmp+0x3c>
    8000163c:	00f586b3          	add	a3,a1,a5
    80001640:	0006c683          	lbu	a3,0(a3)
    80001644:	00178793          	addi	a5,a5,1
    80001648:	00f50633          	add	a2,a0,a5
    8000164c:	fee684e3          	beq	a3,a4,80001634 <strcmp+0x10>
    80001650:	fff00513          	li	a0,-1
    80001654:	00d76e63          	bltu	a4,a3,80001670 <strcmp+0x4c>
    80001658:	00100513          	li	a0,1
    8000165c:	00008067          	ret
    80001660:	00f585b3          	add	a1,a1,a5
    80001664:	0005c503          	lbu	a0,0(a1)
    80001668:	00a03533          	snez	a0,a0
    8000166c:	40a00533          	neg	a0,a0
    80001670:	00008067          	ret

0000000080001674 <memcpy>:
    80001674:	02060063          	beqz	a2,80001694 <memcpy+0x20>
    80001678:	00050793          	mv	a5,a0
    8000167c:	00c58633          	add	a2,a1,a2
    80001680:	0005c703          	lbu	a4,0(a1)
    80001684:	00158593          	addi	a1,a1,1
    80001688:	00178793          	addi	a5,a5,1
    8000168c:	fee78fa3          	sb	a4,-1(a5)
    80001690:	fec598e3          	bne	a1,a2,80001680 <memcpy+0xc>
    80001694:	00008067          	ret

0000000080001698 <itoa>:
    80001698:	00002797          	auipc	a5,0x2
    8000169c:	a3878793          	addi	a5,a5,-1480 # 800030d0 <logo+0x7b4>
    800016a0:	0007be03          	ld	t3,0(a5)
    800016a4:	0087b303          	ld	t1,8(a5)
    800016a8:	0107b883          	ld	a7,16(a5)
    800016ac:	0187b803          	ld	a6,24(a5)
    800016b0:	0207a683          	lw	a3,32(a5)
    800016b4:	0247c703          	lbu	a4,36(a5)
    800016b8:	f7010113          	addi	sp,sp,-144
    800016bc:	00050793          	mv	a5,a0
    800016c0:	01c13023          	sd	t3,0(sp)
    800016c4:	00613423          	sd	t1,8(sp)
    800016c8:	01113823          	sd	a7,16(sp)
    800016cc:	01013c23          	sd	a6,24(sp)
    800016d0:	02d12023          	sw	a3,32(sp)
    800016d4:	02e10223          	sb	a4,36(sp)
    800016d8:	02013423          	sd	zero,40(sp)
    800016dc:	02013823          	sd	zero,48(sp)
    800016e0:	02013c23          	sd	zero,56(sp)
    800016e4:	04013023          	sd	zero,64(sp)
    800016e8:	04013423          	sd	zero,72(sp)
    800016ec:	04013823          	sd	zero,80(sp)
    800016f0:	04013c23          	sd	zero,88(sp)
    800016f4:	06013023          	sd	zero,96(sp)
    800016f8:	06013423          	sd	zero,104(sp)
    800016fc:	06013823          	sd	zero,112(sp)
    80001700:	06013c23          	sd	zero,120(sp)
    80001704:	08013023          	sd	zero,128(sp)
    80001708:	08012423          	sw	zero,136(sp)
    8000170c:	00058513          	mv	a0,a1
    80001710:	0607c863          	bltz	a5,80001780 <itoa+0xe8>
    80001714:	00058713          	mv	a4,a1
    80001718:	06078e63          	beqz	a5,80001794 <itoa+0xfc>
    8000171c:	02810893          	addi	a7,sp,40
    80001720:	00000813          	li	a6,0
    80001724:	02c7e6bb          	remw	a3,a5,a2
    80001728:	00188893          	addi	a7,a7,1
    8000172c:	00080313          	mv	t1,a6
    80001730:	0018081b          	addiw	a6,a6,1
    80001734:	02c7c7bb          	divw	a5,a5,a2
    80001738:	09068693          	addi	a3,a3,144
    8000173c:	002686b3          	add	a3,a3,sp
    80001740:	f706c683          	lbu	a3,-144(a3)
    80001744:	fed88fa3          	sb	a3,-1(a7)
    80001748:	fcf04ee3          	bgtz	a5,80001724 <itoa+0x8c>
    8000174c:	0013061b          	addiw	a2,t1,1
    80001750:	02810793          	addi	a5,sp,40
    80001754:	006787b3          	add	a5,a5,t1
    80001758:	00c70633          	add	a2,a4,a2
    8000175c:	0080006f          	j	80001764 <itoa+0xcc>
    80001760:	0007c683          	lbu	a3,0(a5)
    80001764:	00d70023          	sb	a3,0(a4)
    80001768:	00170713          	addi	a4,a4,1
    8000176c:	fff78793          	addi	a5,a5,-1
    80001770:	fec718e3          	bne	a4,a2,80001760 <itoa+0xc8>
    80001774:	00060023          	sb	zero,0(a2)
    80001778:	09010113          	addi	sp,sp,144
    8000177c:	00008067          	ret
    80001780:	02d00713          	li	a4,45
    80001784:	00e58023          	sb	a4,0(a1)
    80001788:	40f007bb          	negw	a5,a5
    8000178c:	00158713          	addi	a4,a1,1
    80001790:	f8dff06f          	j	8000171c <itoa+0x84>
    80001794:	00058613          	mv	a2,a1
    80001798:	00060023          	sb	zero,0(a2)
    8000179c:	09010113          	addi	sp,sp,144
    800017a0:	00008067          	ret
