
/home/lixinbao/ysyx-workbench/am-kernels/tests/am-tests/build/amtest-riscv64-npc.elf：     文件格式 elf64-littleriscv


Disassembly of section .text:

0000000080000000 <_start>:
    80000000:	00000413          	li	s0,0
    80000004:	0009e117          	auipc	sp,0x9e
    80000008:	ffc10113          	addi	sp,sp,-4 # 8009e000 <_end>
    8000000c:	028010ef          	jal	ra,80001034 <_trm_init>

0000000080000010 <main>:
    80000010:	fd010113          	addi	sp,sp,-48
    80000014:	02113423          	sd	ra,40(sp)
    80000018:	02813023          	sd	s0,32(sp)
    8000001c:	00913c23          	sd	s1,24(sp)
    80000020:	01213823          	sd	s2,16(sp)
    80000024:	01313423          	sd	s3,8(sp)
    80000028:	00054783          	lbu	a5,0(a0)
    8000002c:	01500713          	li	a4,21
    80000030:	f9f7879b          	addiw	a5,a5,-97
    80000034:	0ff7f793          	zext.b	a5,a5
    80000038:	02f76063          	bltu	a4,a5,80000058 <main+0x48>
    8000003c:	00002717          	auipc	a4,0x2
    80000040:	93070713          	addi	a4,a4,-1744 # 8000196c <_etext+0x2c>
    80000044:	00279793          	slli	a5,a5,0x2
    80000048:	00e787b3          	add	a5,a5,a4
    8000004c:	0007a783          	lw	a5,0(a5)
    80000050:	00e787b3          	add	a5,a5,a4
    80000054:	00078067          	jr	a5
    80000058:	00002517          	auipc	a0,0x2
    8000005c:	8e850513          	addi	a0,a0,-1816 # 80001940 <_etext>
    80000060:	690010ef          	jal	ra,800016f0 <printf>
    80000064:	00002497          	auipc	s1,0x2
    80000068:	a3448493          	addi	s1,s1,-1484 # 80001a98 <tests+0x8>
    8000006c:	00000413          	li	s0,0
    80000070:	10000913          	li	s2,256
    80000074:	00002997          	auipc	s3,0x2
    80000078:	8ec98993          	addi	s3,s3,-1812 # 80001960 <_etext+0x20>
    8000007c:	0014041b          	addiw	s0,s0,1
    80000080:	03240c63          	beq	s0,s2,800000b8 <main+0xa8>
    80000084:	0004b603          	ld	a2,0(s1)
    80000088:	00060863          	beqz	a2,80000098 <main+0x88>
    8000008c:	00040593          	mv	a1,s0
    80000090:	00098513          	mv	a0,s3
    80000094:	65c010ef          	jal	ra,800016f0 <printf>
    80000098:	00848493          	addi	s1,s1,8
    8000009c:	fe1ff06f          	j	8000007c <main+0x6c>
    800000a0:	00000797          	auipc	a5,0x0
    800000a4:	7b478793          	addi	a5,a5,1972 # 80000854 <audio_test>
    800000a8:	00095717          	auipc	a4,0x95
    800000ac:	0ef73c23          	sd	a5,248(a4) # 800951a0 <entry>
    800000b0:	11c010ef          	jal	ra,800011cc <ioe_init>
    800000b4:	7a0000ef          	jal	ra,80000854 <audio_test>
    800000b8:	02813083          	ld	ra,40(sp)
    800000bc:	02013403          	ld	s0,32(sp)
    800000c0:	01813483          	ld	s1,24(sp)
    800000c4:	01013903          	ld	s2,16(sp)
    800000c8:	00813983          	ld	s3,8(sp)
    800000cc:	00000513          	li	a0,0
    800000d0:	03010113          	addi	sp,sp,48
    800000d4:	00008067          	ret
    800000d8:	00001797          	auipc	a5,0x1
    800000dc:	cd078793          	addi	a5,a5,-816 # 80000da8 <devscan>
    800000e0:	00095717          	auipc	a4,0x95
    800000e4:	0cf73023          	sd	a5,192(a4) # 800951a0 <entry>
    800000e8:	0e4010ef          	jal	ra,800011cc <ioe_init>
    800000ec:	4bd000ef          	jal	ra,80000da8 <devscan>
    800000f0:	fc9ff06f          	j	800000b8 <main+0xa8>
    800000f4:	00000797          	auipc	a5,0x0
    800000f8:	6fc78793          	addi	a5,a5,1788 # 800007f0 <hello>
    800000fc:	00095717          	auipc	a4,0x95
    80000100:	0af73223          	sd	a5,164(a4) # 800951a0 <entry>
    80000104:	6ec000ef          	jal	ra,800007f0 <hello>
    80000108:	fb1ff06f          	j	800000b8 <main+0xa8>
    8000010c:	00001797          	auipc	a5,0x1
    80000110:	c3478793          	addi	a5,a5,-972 # 80000d40 <hello_intr>
    80000114:	00095717          	auipc	a4,0x95
    80000118:	08f73623          	sd	a5,140(a4) # 800951a0 <entry>
    8000011c:	0b0010ef          	jal	ra,800011cc <ioe_init>
    80000120:	00001517          	auipc	a0,0x1
    80000124:	b8c50513          	addi	a0,a0,-1140 # 80000cac <simple_trap>
    80000128:	2ec010ef          	jal	ra,80001414 <cte_init>
    8000012c:	415000ef          	jal	ra,80000d40 <hello_intr>
    80000130:	f89ff06f          	j	800000b8 <main+0xa8>
    80000134:	00000797          	auipc	a5,0x0
    80000138:	19478793          	addi	a5,a5,404 # 800002c8 <keyboard_test>
    8000013c:	00095717          	auipc	a4,0x95
    80000140:	06f73223          	sd	a5,100(a4) # 800951a0 <entry>
    80000144:	088010ef          	jal	ra,800011cc <ioe_init>
    80000148:	180000ef          	jal	ra,800002c8 <keyboard_test>
    8000014c:	f6dff06f          	j	800000b8 <main+0xa8>
    80000150:	00000797          	auipc	a5,0x0
    80000154:	09078793          	addi	a5,a5,144 # 800001e0 <mp_print>
    80000158:	00078513          	mv	a0,a5
    8000015c:	00095717          	auipc	a4,0x95
    80000160:	04f73223          	sd	a5,68(a4) # 800951a0 <entry>
    80000164:	43c010ef          	jal	ra,800015a0 <mpe_init>
    80000168:	078000ef          	jal	ra,800001e0 <mp_print>
    8000016c:	f4dff06f          	j	800000b8 <main+0xa8>
    80000170:	00001797          	auipc	a5,0x1
    80000174:	9d878793          	addi	a5,a5,-1576 # 80000b48 <vm_test>
    80000178:	00001517          	auipc	a0,0x1
    8000017c:	85850513          	addi	a0,a0,-1960 # 800009d0 <vm_handler>
    80000180:	00095717          	auipc	a4,0x95
    80000184:	02f73023          	sd	a5,32(a4) # 800951a0 <entry>
    80000188:	28c010ef          	jal	ra,80001414 <cte_init>
    8000018c:	00001597          	auipc	a1,0x1
    80000190:	84058593          	addi	a1,a1,-1984 # 800009cc <simple_pgfree>
    80000194:	00000517          	auipc	a0,0x0
    80000198:	7f450513          	addi	a0,a0,2036 # 80000988 <simple_pgalloc>
    8000019c:	3e4010ef          	jal	ra,80001580 <vme_init>
    800001a0:	1a9000ef          	jal	ra,80000b48 <vm_test>
    800001a4:	f15ff06f          	j	800000b8 <main+0xa8>
    800001a8:	00000797          	auipc	a5,0x0
    800001ac:	06078793          	addi	a5,a5,96 # 80000208 <rtc_test>
    800001b0:	00095717          	auipc	a4,0x95
    800001b4:	fef73823          	sd	a5,-16(a4) # 800951a0 <entry>
    800001b8:	014010ef          	jal	ra,800011cc <ioe_init>
    800001bc:	04c000ef          	jal	ra,80000208 <rtc_test>
    800001c0:	ef9ff06f          	j	800000b8 <main+0xa8>
    800001c4:	00000797          	auipc	a5,0x0
    800001c8:	54478793          	addi	a5,a5,1348 # 80000708 <video_test>
    800001cc:	00095717          	auipc	a4,0x95
    800001d0:	fcf73a23          	sd	a5,-44(a4) # 800951a0 <entry>
    800001d4:	7f9000ef          	jal	ra,800011cc <ioe_init>
    800001d8:	530000ef          	jal	ra,80000708 <video_test>
    800001dc:	eddff06f          	j	800000b8 <main+0xa8>

00000000800001e0 <mp_print>:
    800001e0:	ff010113          	addi	sp,sp,-16
    800001e4:	00813023          	sd	s0,0(sp)
    800001e8:	00113423          	sd	ra,8(sp)
    800001ec:	00002417          	auipc	s0,0x2
    800001f0:	0a440413          	addi	s0,s0,164 # 80002290 <tests+0x800>
    800001f4:	3b4010ef          	jal	ra,800015a8 <cpu_current>
    800001f8:	00050593          	mv	a1,a0
    800001fc:	00040513          	mv	a0,s0
    80000200:	4f0010ef          	jal	ra,800016f0 <printf>
    80000204:	ff1ff06f          	j	800001f4 <mp_print+0x14>

0000000080000208 <rtc_test>:
    80000208:	fa010113          	addi	sp,sp,-96
    8000020c:	04913423          	sd	s1,72(sp)
    80000210:	000f44b7          	lui	s1,0xf4
    80000214:	04813823          	sd	s0,80(sp)
    80000218:	03313c23          	sd	s3,56(sp)
    8000021c:	03413823          	sd	s4,48(sp)
    80000220:	03513423          	sd	s5,40(sp)
    80000224:	03613023          	sd	s6,32(sp)
    80000228:	04113c23          	sd	ra,88(sp)
    8000022c:	05213023          	sd	s2,64(sp)
    80000230:	00100413          	li	s0,1
    80000234:	24048493          	addi	s1,s1,576 # f4240 <_entry_offset+0xf4240>
    80000238:	00002a17          	auipc	s4,0x2
    8000023c:	060a0a13          	addi	s4,s4,96 # 80002298 <tests+0x808>
    80000240:	00100993          	li	s3,1
    80000244:	00002b17          	auipc	s6,0x2
    80000248:	084b0b13          	addi	s6,s6,132 # 800022c8 <tests+0x838>
    8000024c:	00002a97          	auipc	s5,0x2
    80000250:	06ca8a93          	addi	s5,s5,108 # 800022b8 <tests+0x828>
    80000254:	0004091b          	sext.w	s2,s0
    80000258:	00810593          	addi	a1,sp,8
    8000025c:	00600513          	li	a0,6
    80000260:	030010ef          	jal	ra,80001290 <ioe_read>
    80000264:	00813783          	ld	a5,8(sp)
    80000268:	0297d7b3          	divu	a5,a5,s1
    8000026c:	fe87e6e3          	bltu	a5,s0,80000258 <rtc_test+0x50>
    80000270:	00810593          	addi	a1,sp,8
    80000274:	00500513          	li	a0,5
    80000278:	018010ef          	jal	ra,80001290 <ioe_read>
    8000027c:	01c12803          	lw	a6,28(sp)
    80000280:	01812783          	lw	a5,24(sp)
    80000284:	01412703          	lw	a4,20(sp)
    80000288:	01012683          	lw	a3,16(sp)
    8000028c:	00c12603          	lw	a2,12(sp)
    80000290:	00812583          	lw	a1,8(sp)
    80000294:	000a0513          	mv	a0,s4
    80000298:	458010ef          	jal	ra,800016f0 <printf>
    8000029c:	01341c63          	bne	s0,s3,800002b4 <rtc_test+0xac>
    800002a0:	00100593          	li	a1,1
    800002a4:	000a8513          	mv	a0,s5
    800002a8:	448010ef          	jal	ra,800016f0 <printf>
    800002ac:	00140413          	addi	s0,s0,1
    800002b0:	fa5ff06f          	j	80000254 <rtc_test+0x4c>
    800002b4:	00090593          	mv	a1,s2
    800002b8:	000b0513          	mv	a0,s6
    800002bc:	434010ef          	jal	ra,800016f0 <printf>
    800002c0:	00140413          	addi	s0,s0,1
    800002c4:	f91ff06f          	j	80000254 <rtc_test+0x4c>

00000000800002c8 <keyboard_test>:
    800002c8:	fc010113          	addi	sp,sp,-64
    800002cc:	00002517          	auipc	a0,0x2
    800002d0:	01c50513          	addi	a0,a0,28 # 800022e8 <tests+0x858>
    800002d4:	02113c23          	sd	ra,56(sp)
    800002d8:	02813823          	sd	s0,48(sp)
    800002dc:	02913423          	sd	s1,40(sp)
    800002e0:	03213023          	sd	s2,32(sp)
    800002e4:	01313c23          	sd	s3,24(sp)
    800002e8:	01413823          	sd	s4,16(sp)
    800002ec:	404010ef          	jal	ra,800016f0 <printf>
    800002f0:	00100513          	li	a0,1
    800002f4:	00810593          	addi	a1,sp,8
    800002f8:	799000ef          	jal	ra,80001290 <ioe_read>
    800002fc:	00810593          	addi	a1,sp,8
    80000300:	00700513          	li	a0,7
    80000304:	78d000ef          	jal	ra,80001290 <ioe_read>
    80000308:	00814783          	lbu	a5,8(sp)
    8000030c:	00095a17          	auipc	s4,0x95
    80000310:	e9ca0a13          	addi	s4,s4,-356 # 800951a8 <has_kbd>
    80000314:	00002497          	auipc	s1,0x2
    80000318:	2cc48493          	addi	s1,s1,716 # 800025e0 <names>
    8000031c:	00fa0023          	sb	a5,0(s4)
    80000320:	00002917          	auipc	s2,0x2
    80000324:	fb890913          	addi	s2,s2,-72 # 800022d8 <tests+0x848>
    80000328:	00002997          	auipc	s3,0x2
    8000032c:	fb898993          	addi	s3,s3,-72 # 800022e0 <tests+0x850>
    80000330:	00002417          	auipc	s0,0x2
    80000334:	fe840413          	addi	s0,s0,-24 # 80002318 <tests+0x888>
    80000338:	00079e63          	bnez	a5,80000354 <keyboard_test+0x8c>
    8000033c:	0000006f          	j	8000033c <keyboard_test+0x74>
    80000340:	0007b583          	ld	a1,0(a5)
    80000344:	00090693          	mv	a3,s2
    80000348:	00071463          	bnez	a4,80000350 <keyboard_test+0x88>
    8000034c:	00098693          	mv	a3,s3
    80000350:	3a0010ef          	jal	ra,800016f0 <printf>
    80000354:	00800513          	li	a0,8
    80000358:	00810593          	addi	a1,sp,8
    8000035c:	735000ef          	jal	ra,80001290 <ioe_read>
    80000360:	00c12603          	lw	a2,12(sp)
    80000364:	00814703          	lbu	a4,8(sp)
    80000368:	00040513          	mv	a0,s0
    8000036c:	00361793          	slli	a5,a2,0x3
    80000370:	00f487b3          	add	a5,s1,a5
    80000374:	fc0616e3          	bnez	a2,80000340 <keyboard_test+0x78>
    80000378:	000a4783          	lbu	a5,0(s4)
    8000037c:	fc079ce3          	bnez	a5,80000354 <keyboard_test+0x8c>
    80000380:	fbdff06f          	j	8000033c <keyboard_test+0x74>

0000000080000384 <redraw>:
    80000384:	f7010113          	addi	sp,sp,-144
    80000388:	00010593          	mv	a1,sp
    8000038c:	00900513          	li	a0,9
    80000390:	08113423          	sd	ra,136(sp)
    80000394:	06913c23          	sd	s1,120(sp)
    80000398:	07213823          	sd	s2,112(sp)
    8000039c:	07313423          	sd	s3,104(sp)
    800003a0:	05613823          	sd	s6,80(sp)
    800003a4:	08813023          	sd	s0,128(sp)
    800003a8:	07413023          	sd	s4,96(sp)
    800003ac:	05513c23          	sd	s5,88(sp)
    800003b0:	05713423          	sd	s7,72(sp)
    800003b4:	05813023          	sd	s8,64(sp)
    800003b8:	03913c23          	sd	s9,56(sp)
    800003bc:	03a13823          	sd	s10,48(sp)
    800003c0:	03b13423          	sd	s11,40(sp)
    800003c4:	6cd000ef          	jal	ra,80001290 <ioe_read>
    800003c8:	00412783          	lw	a5,4(sp)
    800003cc:	00010593          	mv	a1,sp
    800003d0:	00900513          	li	a0,9
    800003d4:	41f7d99b          	sraiw	s3,a5,0x1f
    800003d8:	01b9d99b          	srliw	s3,s3,0x1b
    800003dc:	00f989bb          	addw	s3,s3,a5
    800003e0:	6b1000ef          	jal	ra,80001290 <ioe_read>
    800003e4:	00812783          	lw	a5,8(sp)
    800003e8:	4059d99b          	sraiw	s3,s3,0x5
    800003ec:	00010593          	mv	a1,sp
    800003f0:	41f7d91b          	sraiw	s2,a5,0x1f
    800003f4:	01b9591b          	srliw	s2,s2,0x1b
    800003f8:	00f9093b          	addw	s2,s2,a5
    800003fc:	4059591b          	sraiw	s2,s2,0x5
    80000400:	03298b3b          	mulw	s6,s3,s2
    80000404:	00900513          	li	a0,9
    80000408:	689000ef          	jal	ra,80001290 <ioe_read>
    8000040c:	00010593          	mv	a1,sp
    80000410:	00900513          	li	a0,9
    80000414:	00412483          	lw	s1,4(sp)
    80000418:	679000ef          	jal	ra,80001290 <ioe_read>
    8000041c:	00812603          	lw	a2,8(sp)
    80000420:	00048593          	mv	a1,s1
    80000424:	00002517          	auipc	a0,0x2
    80000428:	45450513          	addi	a0,a0,1108 # 80002878 <names+0x298>
    8000042c:	2c4010ef          	jal	ra,800016f0 <printf>
    80000430:	40000793          	li	a5,1024
    80000434:	1167e263          	bltu	a5,s6,80000538 <redraw+0x1b4>
    80000438:	fffb041b          	addiw	s0,s6,-1
    8000043c:	02041793          	slli	a5,s0,0x20
    80000440:	01e7d413          	srli	s0,a5,0x1e
    80000444:	00012797          	auipc	a5,0x12
    80000448:	b4078793          	addi	a5,a5,-1216 # 80011f84 <color_buf+0x4>
    8000044c:	00011a17          	auipc	s4,0x11
    80000450:	bb4a0a13          	addi	s4,s4,-1100 # 80011000 <canvas+0x80>
    80000454:	00012c17          	auipc	s8,0x12
    80000458:	bacc0c13          	addi	s8,s8,-1108 # 80012000 <color_buf+0x80>
    8000045c:	00012497          	auipc	s1,0x12
    80000460:	b2448493          	addi	s1,s1,-1244 # 80011f80 <color_buf>
    80000464:	00f40433          	add	s0,s0,a5
    80000468:	00000c93          	li	s9,0
    8000046c:	00098b9b          	sext.w	s7,s3
    80000470:	000c8a9b          	sext.w	s5,s9
    80000474:	f80a0d13          	addi	s10,s4,-128
    80000478:	00000d93          	li	s11,0
    8000047c:	000b0c63          	beqz	s6,80000494 <redraw+0x110>
    80000480:	000d2703          	lw	a4,0(s10)
    80000484:	00048793          	mv	a5,s1
    80000488:	00e7a023          	sw	a4,0(a5)
    8000048c:	00478793          	addi	a5,a5,4
    80000490:	fe879ce3          	bne	a5,s0,80000488 <redraw+0x104>
    80000494:	004d0d13          	addi	s10,s10,4
    80000498:	00010593          	mv	a1,sp
    8000049c:	00b00513          	li	a0,11
    800004a0:	01b12023          	sw	s11,0(sp)
    800004a4:	01512223          	sw	s5,4(sp)
    800004a8:	00913423          	sd	s1,8(sp)
    800004ac:	01312823          	sw	s3,16(sp)
    800004b0:	01212a23          	sw	s2,20(sp)
    800004b4:	00010c23          	sb	zero,24(sp)
    800004b8:	017d8dbb          	addw	s11,s11,s7
    800004bc:	5f1000ef          	jal	ra,800012ac <ioe_write>
    800004c0:	fb4d1ee3          	bne	s10,s4,8000047c <redraw+0xf8>
    800004c4:	080d0a13          	addi	s4,s10,128
    800004c8:	01990cbb          	addw	s9,s2,s9
    800004cc:	fb8a12e3          	bne	s4,s8,80000470 <redraw+0xec>
    800004d0:	00002517          	auipc	a0,0x2
    800004d4:	44050513          	addi	a0,a0,1088 # 80002910 <names+0x330>
    800004d8:	218010ef          	jal	ra,800016f0 <printf>
    800004dc:	00010593          	mv	a1,sp
    800004e0:	00100793          	li	a5,1
    800004e4:	00b00513          	li	a0,11
    800004e8:	00013023          	sd	zero,0(sp)
    800004ec:	00013423          	sd	zero,8(sp)
    800004f0:	00013823          	sd	zero,16(sp)
    800004f4:	00f10c23          	sb	a5,24(sp)
    800004f8:	5b5000ef          	jal	ra,800012ac <ioe_write>
    800004fc:	08813083          	ld	ra,136(sp)
    80000500:	08013403          	ld	s0,128(sp)
    80000504:	07813483          	ld	s1,120(sp)
    80000508:	07013903          	ld	s2,112(sp)
    8000050c:	06813983          	ld	s3,104(sp)
    80000510:	06013a03          	ld	s4,96(sp)
    80000514:	05813a83          	ld	s5,88(sp)
    80000518:	05013b03          	ld	s6,80(sp)
    8000051c:	04813b83          	ld	s7,72(sp)
    80000520:	04013c03          	ld	s8,64(sp)
    80000524:	03813c83          	ld	s9,56(sp)
    80000528:	03013d03          	ld	s10,48(sp)
    8000052c:	02813d83          	ld	s11,40(sp)
    80000530:	09010113          	addi	sp,sp,144
    80000534:	00008067          	ret
    80000538:	01700613          	li	a2,23
    8000053c:	00002597          	auipc	a1,0x2
    80000540:	36458593          	addi	a1,a1,868 # 800028a0 <names+0x2c0>
    80000544:	00002517          	auipc	a0,0x2
    80000548:	3ac50513          	addi	a0,a0,940 # 800028f0 <names+0x310>
    8000054c:	1a4010ef          	jal	ra,800016f0 <printf>
    80000550:	00100513          	li	a0,1
    80000554:	2d5000ef          	jal	ra,80001028 <halt>

0000000080000558 <update>:
    80000558:	00095617          	auipc	a2,0x95
    8000055c:	c5460613          	addi	a2,a2,-940 # 800951ac <tsc.2>
    80000560:	00062783          	lw	a5,0(a2)
    80000564:	fe010113          	addi	sp,sp,-32
    80000568:	00813c23          	sd	s0,24(sp)
    8000056c:	00913823          	sd	s1,16(sp)
    80000570:	01213423          	sd	s2,8(sp)
    80000574:	01313023          	sd	s3,0(sp)
    80000578:	0017839b          	addiw	t2,a5,1
    8000057c:	00013717          	auipc	a4,0x13
    80000580:	a8470713          	addi	a4,a4,-1404 # 80013000 <used+0x80>
    80000584:	00014697          	auipc	a3,0x14
    80000588:	a7c68693          	addi	a3,a3,-1412 # 80014000 <stack.0+0x60>
    8000058c:	00762023          	sw	t2,0(a2)
    80000590:	f8070793          	addi	a5,a4,-128
    80000594:	0007a023          	sw	zero,0(a5)
    80000598:	00478793          	addi	a5,a5,4
    8000059c:	fef71ce3          	bne	a4,a5,80000594 <update+0x3c>
    800005a0:	08070713          	addi	a4,a4,128
    800005a4:	fed716e3          	bne	a4,a3,80000590 <update+0x38>
    800005a8:	0ff3f693          	zext.b	a3,t2
    800005ac:	0016979b          	slliw	a5,a3,0x1
    800005b0:	00d787bb          	addw	a5,a5,a3
    800005b4:	0036971b          	slliw	a4,a3,0x3
    800005b8:	0017979b          	slliw	a5,a5,0x1
    800005bc:	40d7073b          	subw	a4,a4,a3
    800005c0:	0ff7f793          	zext.b	a5,a5
    800005c4:	0ff77713          	zext.b	a4,a4
    800005c8:	0087171b          	slliw	a4,a4,0x8
    800005cc:	0107979b          	slliw	a5,a5,0x10
    800005d0:	00e7e7b3          	or	a5,a5,a4
    800005d4:	0ff3f713          	zext.b	a4,t2
    800005d8:	00e7e7b3          	or	a5,a5,a4
    800005dc:	00011417          	auipc	s0,0x11
    800005e0:	9a440413          	addi	s0,s0,-1628 # 80010f80 <canvas>
    800005e4:	00013e97          	auipc	t4,0x13
    800005e8:	99ce8e93          	addi	t4,t4,-1636 # 80012f80 <used>
    800005ec:	00f42023          	sw	a5,0(s0)
    800005f0:	00100793          	li	a5,1
    800005f4:	00fea023          	sw	a5,0(t4)
    800005f8:	00100713          	li	a4,1
    800005fc:	00000793          	li	a5,0
    80000600:	00100f93          	li	t6,1
    80000604:	00000593          	li	a1,0
    80000608:	00000913          	li	s2,0
    8000060c:	00000e13          	li	t3,0
    80000610:	01f00f13          	li	t5,31
    80000614:	00002317          	auipc	t1,0x2
    80000618:	34c30313          	addi	t1,t1,844 # 80002960 <dx.1>
    8000061c:	00002897          	auipc	a7,0x2
    80000620:	35488893          	addi	a7,a7,852 # 80002970 <dy.0>
    80000624:	00100493          	li	s1,1
    80000628:	40000293          	li	t0,1024
    8000062c:	00400693          	li	a3,4
    80000630:	00fe063b          	addw	a2,t3,a5
    80000634:	00e9073b          	addw	a4,s2,a4
    80000638:	00561793          	slli	a5,a2,0x5
    8000063c:	00e787b3          	add	a5,a5,a4
    80000640:	00279793          	slli	a5,a5,0x2
    80000644:	00e66533          	or	a0,a2,a4
    80000648:	00fe89b3          	add	s3,t4,a5
    8000064c:	00158813          	addi	a6,a1,1
    80000650:	fff6869b          	addiw	a3,a3,-1
    80000654:	00af6663          	bltu	t5,a0,80000660 <update+0x108>
    80000658:	0009a503          	lw	a0,0(s3)
    8000065c:	02050263          	beqz	a0,80000680 <update+0x128>
    80000660:	00387593          	andi	a1,a6,3
    80000664:	00259793          	slli	a5,a1,0x2
    80000668:	00f30633          	add	a2,t1,a5
    8000066c:	00f88733          	add	a4,a7,a5
    80000670:	06068063          	beqz	a3,800006d0 <update+0x178>
    80000674:	00062783          	lw	a5,0(a2)
    80000678:	00072703          	lw	a4,0(a4)
    8000067c:	fb5ff06f          	j	80000630 <update+0xd8>
    80000680:	401fd81b          	sraiw	a6,t6,0x1
    80000684:	0078083b          	addw	a6,a6,t2
    80000688:	0ff87e13          	zext.b	t3,a6
    8000068c:	001e151b          	slliw	a0,t3,0x1
    80000690:	01c5053b          	addw	a0,a0,t3
    80000694:	003e169b          	slliw	a3,t3,0x3
    80000698:	41c686bb          	subw	a3,a3,t3
    8000069c:	0015151b          	slliw	a0,a0,0x1
    800006a0:	0ff57513          	zext.b	a0,a0
    800006a4:	0ff6f693          	zext.b	a3,a3
    800006a8:	0086969b          	slliw	a3,a3,0x8
    800006ac:	0105151b          	slliw	a0,a0,0x10
    800006b0:	00d56533          	or	a0,a0,a3
    800006b4:	0ff87813          	zext.b	a6,a6
    800006b8:	00f406b3          	add	a3,s0,a5
    800006bc:	010567b3          	or	a5,a0,a6
    800006c0:	0099a023          	sw	s1,0(s3)
    800006c4:	00f6a023          	sw	a5,0(a3)
    800006c8:	00070913          	mv	s2,a4
    800006cc:	00060e13          	mv	t3,a2
    800006d0:	001f8f9b          	addiw	t6,t6,1
    800006d4:	005f8e63          	beq	t6,t0,800006f0 <update+0x198>
    800006d8:	00259793          	slli	a5,a1,0x2
    800006dc:	00f88733          	add	a4,a7,a5
    800006e0:	00f306b3          	add	a3,t1,a5
    800006e4:	0006a783          	lw	a5,0(a3)
    800006e8:	00072703          	lw	a4,0(a4)
    800006ec:	f41ff06f          	j	8000062c <update+0xd4>
    800006f0:	01813403          	ld	s0,24(sp)
    800006f4:	01013483          	ld	s1,16(sp)
    800006f8:	00813903          	ld	s2,8(sp)
    800006fc:	00013983          	ld	s3,0(sp)
    80000700:	02010113          	addi	sp,sp,32
    80000704:	00008067          	ret

0000000080000708 <video_test>:
    80000708:	f9010113          	addi	sp,sp,-112
    8000070c:	04913c23          	sd	s1,88(sp)
    80000710:	05213823          	sd	s2,80(sp)
    80000714:	05313423          	sd	s3,72(sp)
    80000718:	05413023          	sd	s4,64(sp)
    8000071c:	03513c23          	sd	s5,56(sp)
    80000720:	03613823          	sd	s6,48(sp)
    80000724:	03713423          	sd	s7,40(sp)
    80000728:	03813023          	sd	s8,32(sp)
    8000072c:	01913c23          	sd	s9,24(sp)
    80000730:	01a13823          	sd	s10,16(sp)
    80000734:	06113423          	sd	ra,104(sp)
    80000738:	06813023          	sd	s0,96(sp)
    8000073c:	00000a13          	li	s4,0
    80000740:	00000993          	li	s3,0
    80000744:	00000913          	li	s2,0
    80000748:	3e800493          	li	s1,1000
    8000074c:	00002b17          	auipc	s6,0x2
    80000750:	1ccb0b13          	addi	s6,s6,460 # 80002918 <names+0x338>
    80000754:	02100a93          	li	s5,33
    80000758:	00002d17          	auipc	s10,0x2
    8000075c:	1d8d0d13          	addi	s10,s10,472 # 80002930 <names+0x350>
    80000760:	00002c97          	auipc	s9,0x2
    80000764:	1d8c8c93          	addi	s9,s9,472 # 80002938 <names+0x358>
    80000768:	00002c17          	auipc	s8,0x2
    8000076c:	1d8c0c13          	addi	s8,s8,472 # 80002940 <names+0x360>
    80000770:	00002b97          	auipc	s7,0x2
    80000774:	1e0b8b93          	addi	s7,s7,480 # 80002950 <names+0x370>
    80000778:	00810593          	addi	a1,sp,8
    8000077c:	00600513          	li	a0,6
    80000780:	311000ef          	jal	ra,80001290 <ioe_read>
    80000784:	00813403          	ld	s0,8(sp)
    80000788:	000b0513          	mv	a0,s6
    8000078c:	02945433          	divu	s0,s0,s1
    80000790:	00040593          	mv	a1,s0
    80000794:	75d000ef          	jal	ra,800016f0 <printf>
    80000798:	412407b3          	sub	a5,s0,s2
    8000079c:	02fae463          	bltu	s5,a5,800007c4 <video_test+0xbc>
    800007a0:	413407b3          	sub	a5,s0,s3
    800007a4:	fcf4fae3          	bgeu	s1,a5,80000778 <video_test+0x70>
    800007a8:	000a0613          	mv	a2,s4
    800007ac:	00040593          	mv	a1,s0
    800007b0:	000b8513          	mv	a0,s7
    800007b4:	73d000ef          	jal	ra,800016f0 <printf>
    800007b8:	00040993          	mv	s3,s0
    800007bc:	00000a13          	li	s4,0
    800007c0:	fb9ff06f          	j	80000778 <video_test+0x70>
    800007c4:	000d0513          	mv	a0,s10
    800007c8:	729000ef          	jal	ra,800016f0 <printf>
    800007cc:	d8dff0ef          	jal	ra,80000558 <update>
    800007d0:	000c8513          	mv	a0,s9
    800007d4:	71d000ef          	jal	ra,800016f0 <printf>
    800007d8:	badff0ef          	jal	ra,80000384 <redraw>
    800007dc:	000c0513          	mv	a0,s8
    800007e0:	711000ef          	jal	ra,800016f0 <printf>
    800007e4:	001a0a1b          	addiw	s4,s4,1
    800007e8:	00040913          	mv	s2,s0
    800007ec:	fb5ff06f          	j	800007a0 <video_test+0x98>

00000000800007f0 <hello>:
    800007f0:	fe010113          	addi	sp,sp,-32
    800007f4:	06c00513          	li	a0,108
    800007f8:	00113c23          	sd	ra,24(sp)
    800007fc:	00913423          	sd	s1,8(sp)
    80000800:	00813823          	sd	s0,16(sp)
    80000804:	015000ef          	jal	ra,80001018 <putch>
    80000808:	07800513          	li	a0,120
    8000080c:	00d000ef          	jal	ra,80001018 <putch>
    80000810:	06200513          	li	a0,98
    80000814:	005000ef          	jal	ra,80001018 <putch>
    80000818:	00a00493          	li	s1,10
    8000081c:	00002417          	auipc	s0,0x2
    80000820:	16440413          	addi	s0,s0,356 # 80002980 <dy.0+0x10>
    80000824:	04800513          	li	a0,72
    80000828:	00140413          	addi	s0,s0,1
    8000082c:	7ec000ef          	jal	ra,80001018 <putch>
    80000830:	00044503          	lbu	a0,0(s0)
    80000834:	fe051ae3          	bnez	a0,80000828 <hello+0x38>
    80000838:	fff4849b          	addiw	s1,s1,-1
    8000083c:	fe0490e3          	bnez	s1,8000081c <hello+0x2c>
    80000840:	01813083          	ld	ra,24(sp)
    80000844:	01013403          	ld	s0,16(sp)
    80000848:	00813483          	ld	s1,8(sp)
    8000084c:	02010113          	addi	sp,sp,32
    80000850:	00008067          	ret

0000000080000854 <audio_test>:
    80000854:	fc010113          	addi	sp,sp,-64
    80000858:	00010593          	mv	a1,sp
    8000085c:	00e00513          	li	a0,14
    80000860:	02113c23          	sd	ra,56(sp)
    80000864:	02813823          	sd	s0,48(sp)
    80000868:	02913423          	sd	s1,40(sp)
    8000086c:	03213023          	sd	s2,32(sp)
    80000870:	01313c23          	sd	s3,24(sp)
    80000874:	01413823          	sd	s4,16(sp)
    80000878:	219000ef          	jal	ra,80001290 <ioe_read>
    8000087c:	00014783          	lbu	a5,0(sp)
    80000880:	0c078c63          	beqz	a5,80000958 <audio_test+0x104>
    80000884:	040007b7          	lui	a5,0x4000
    80000888:	07d78793          	addi	a5,a5,125 # 400007d <_entry_offset+0x400007d>
    8000088c:	00679793          	slli	a5,a5,0x6
    80000890:	00002497          	auipc	s1,0x2
    80000894:	4b048493          	addi	s1,s1,1200 # 80002d40 <audio_payload>
    80000898:	00010917          	auipc	s2,0x10
    8000089c:	2b490913          	addi	s2,s2,692 # 80010b4c <_data>
    800008a0:	00f13023          	sd	a5,0(sp)
    800008a4:	00010593          	mv	a1,sp
    800008a8:	40000793          	li	a5,1024
    800008ac:	00f00513          	li	a0,15
    800008b0:	4099093b          	subw	s2,s2,s1
    800008b4:	00f12423          	sw	a5,8(sp)
    800008b8:	1f5000ef          	jal	ra,800012ac <ioe_write>
    800008bc:	06090463          	beqz	s2,80000924 <audio_test+0xd0>
    800008c0:	00000413          	li	s0,0
    800008c4:	00000793          	li	a5,0
    800008c8:	00001a37          	lui	s4,0x1
    800008cc:	00002997          	auipc	s3,0x2
    800008d0:	10498993          	addi	s3,s3,260 # 800029d0 <dy.0+0x60>
    800008d4:	40f907bb          	subw	a5,s2,a5
    800008d8:	0007869b          	sext.w	a3,a5
    800008dc:	00048713          	mv	a4,s1
    800008e0:	00010593          	mv	a1,sp
    800008e4:	01100513          	li	a0,17
    800008e8:	00da7463          	bgeu	s4,a3,800008f0 <audio_test+0x9c>
    800008ec:	000017b7          	lui	a5,0x1
    800008f0:	02079693          	slli	a3,a5,0x20
    800008f4:	0206d693          	srli	a3,a3,0x20
    800008f8:	00d484b3          	add	s1,s1,a3
    800008fc:	0087843b          	addw	s0,a5,s0
    80000900:	00e13023          	sd	a4,0(sp)
    80000904:	00913423          	sd	s1,8(sp)
    80000908:	1a5000ef          	jal	ra,800012ac <ioe_write>
    8000090c:	00090613          	mv	a2,s2
    80000910:	00040593          	mv	a1,s0
    80000914:	00098513          	mv	a0,s3
    80000918:	5d9000ef          	jal	ra,800016f0 <printf>
    8000091c:	00040793          	mv	a5,s0
    80000920:	fb246ae3          	bltu	s0,s2,800008d4 <audio_test+0x80>
    80000924:	00010593          	mv	a1,sp
    80000928:	01000513          	li	a0,16
    8000092c:	165000ef          	jal	ra,80001290 <ioe_read>
    80000930:	00012783          	lw	a5,0(sp)
    80000934:	fef048e3          	bgtz	a5,80000924 <audio_test+0xd0>
    80000938:	03813083          	ld	ra,56(sp)
    8000093c:	03013403          	ld	s0,48(sp)
    80000940:	02813483          	ld	s1,40(sp)
    80000944:	02013903          	ld	s2,32(sp)
    80000948:	01813983          	ld	s3,24(sp)
    8000094c:	01013a03          	ld	s4,16(sp)
    80000950:	04010113          	addi	sp,sp,64
    80000954:	00008067          	ret
    80000958:	03013403          	ld	s0,48(sp)
    8000095c:	03813083          	ld	ra,56(sp)
    80000960:	02813483          	ld	s1,40(sp)
    80000964:	02013903          	ld	s2,32(sp)
    80000968:	01813983          	ld	s3,24(sp)
    8000096c:	01013a03          	ld	s4,16(sp)
    80000970:	00002597          	auipc	a1,0x2
    80000974:	02858593          	addi	a1,a1,40 # 80002998 <dy.0+0x28>
    80000978:	00002517          	auipc	a0,0x2
    8000097c:	03050513          	addi	a0,a0,48 # 800029a8 <dy.0+0x38>
    80000980:	04010113          	addi	sp,sp,64
    80000984:	56d0006f          	j	800016f0 <printf>

0000000080000988 <simple_pgalloc>:
    80000988:	00095617          	auipc	a2,0x95
    8000098c:	82860613          	addi	a2,a2,-2008 # 800951b0 <st>
    80000990:	00063683          	ld	a3,0(a2)
    80000994:	00069663          	bnez	a3,800009a0 <simple_pgalloc+0x18>
    80000998:	00010697          	auipc	a3,0x10
    8000099c:	1d06b683          	ld	a3,464(a3) # 80010b68 <heap>
    800009a0:	02a6f7b3          	remu	a5,a3,a0
    800009a4:	00078c63          	beqz	a5,800009bc <simple_pgalloc+0x34>
    800009a8:	00168793          	addi	a5,a3,1
    800009ac:	02a7f733          	remu	a4,a5,a0
    800009b0:	00078693          	mv	a3,a5
    800009b4:	00178793          	addi	a5,a5,1 # 1001 <_entry_offset+0x1001>
    800009b8:	fe071ae3          	bnez	a4,800009ac <simple_pgalloc+0x24>
    800009bc:	00d50533          	add	a0,a0,a3
    800009c0:	00a63023          	sd	a0,0(a2)
    800009c4:	00068513          	mv	a0,a3
    800009c8:	00008067          	ret

00000000800009cc <simple_pgfree>:
    800009cc:	00008067          	ret

00000000800009d0 <vm_handler>:
    800009d0:	00052783          	lw	a5,0(a0)
    800009d4:	fe010113          	addi	sp,sp,-32
    800009d8:	00813823          	sd	s0,16(sp)
    800009dc:	00113c23          	sd	ra,24(sp)
    800009e0:	00300713          	li	a4,3
    800009e4:	00853603          	ld	a2,8(a0)
    800009e8:	00058413          	mv	s0,a1
    800009ec:	0ce78263          	beq	a5,a4,80000ab0 <vm_handler+0xe0>
    800009f0:	08f76263          	bltu	a4,a5,80000a74 <vm_handler+0xa4>
    800009f4:	00100713          	li	a4,1
    800009f8:	08e78c63          	beq	a5,a4,80000a90 <vm_handler+0xc0>
    800009fc:	00200713          	li	a4,2
    80000a00:	12e79463          	bne	a5,a4,80000b28 <vm_handler+0x158>
    80000a04:	00100513          	li	a0,1
    80000a08:	239000ef          	jal	ra,80001440 <iset>
    80000a0c:	00012623          	sw	zero,12(sp)
    80000a10:	00c12783          	lw	a5,12(sp)
    80000a14:	000f4737          	lui	a4,0xf4
    80000a18:	23f70713          	addi	a4,a4,575 # f423f <_entry_offset+0xf423f>
    80000a1c:	00f74c63          	blt	a4,a5,80000a34 <vm_handler+0x64>
    80000a20:	00c12783          	lw	a5,12(sp)
    80000a24:	0017879b          	addiw	a5,a5,1
    80000a28:	00f12623          	sw	a5,12(sp)
    80000a2c:	00c12783          	lw	a5,12(sp)
    80000a30:	fef758e3          	bge	a4,a5,80000a20 <vm_handler+0x50>
    80000a34:	05043583          	ld	a1,80(s0)
    80000a38:	00002517          	auipc	a0,0x2
    80000a3c:	01050513          	addi	a0,a0,16 # 80002a48 <dy.0+0xd8>
    80000a40:	4b1000ef          	jal	ra,800016f0 <printf>
    80000a44:	00010797          	auipc	a5,0x10
    80000a48:	11c7a783          	lw	a5,284(a5) # 80010b60 <first_trap>
    80000a4c:	00078a63          	beqz	a5,80000a60 <vm_handler+0x90>
    80000a50:	00010797          	auipc	a5,0x10
    80000a54:	1007a823          	sw	zero,272(a5) # 80010b60 <first_trap>
    80000a58:	00094417          	auipc	s0,0x94
    80000a5c:	76043403          	ld	s0,1888(s0) # 800951b8 <uctx>
    80000a60:	01813083          	ld	ra,24(sp)
    80000a64:	00040513          	mv	a0,s0
    80000a68:	01013403          	ld	s0,16(sp)
    80000a6c:	02010113          	addi	sp,sp,32
    80000a70:	00008067          	ret
    80000a74:	ffb7879b          	addiw	a5,a5,-5
    80000a78:	00100713          	li	a4,1
    80000a7c:	0af76663          	bltu	a4,a5,80000b28 <vm_handler+0x158>
    80000a80:	01853583          	ld	a1,24(a0)
    80000a84:	00002517          	auipc	a0,0x2
    80000a88:	f9450513          	addi	a0,a0,-108 # 80002a18 <dy.0+0xa8>
    80000a8c:	465000ef          	jal	ra,800016f0 <printf>
    80000a90:	00010797          	auipc	a5,0x10
    80000a94:	0d07a783          	lw	a5,208(a5) # 80010b60 <first_trap>
    80000a98:	fc0784e3          	beqz	a5,80000a60 <vm_handler+0x90>
    80000a9c:	00010797          	auipc	a5,0x10
    80000aa0:	0c07a223          	sw	zero,196(a5) # 80010b60 <first_trap>
    80000aa4:	00094417          	auipc	s0,0x94
    80000aa8:	71443403          	ld	s0,1812(s0) # 800951b8 <uctx>
    80000aac:	fb5ff06f          	j	80000a60 <vm_handler+0x90>
    80000ab0:	00167793          	andi	a5,a2,1
    80000ab4:	01053583          	ld	a1,16(a0)
    80000ab8:	00002697          	auipc	a3,0x2
    80000abc:	f4068693          	addi	a3,a3,-192 # 800029f8 <dy.0+0x88>
    80000ac0:	04078663          	beqz	a5,80000b0c <vm_handler+0x13c>
    80000ac4:	00267613          	andi	a2,a2,2
    80000ac8:	00002717          	auipc	a4,0x2
    80000acc:	f4070713          	addi	a4,a4,-192 # 80002a08 <dy.0+0x98>
    80000ad0:	00060e63          	beqz	a2,80000aec <vm_handler+0x11c>
    80000ad4:	00002617          	auipc	a2,0x2
    80000ad8:	dc460613          	addi	a2,a2,-572 # 80002898 <names+0x2b8>
    80000adc:	00002517          	auipc	a0,0x2
    80000ae0:	f5c50513          	addi	a0,a0,-164 # 80002a38 <dy.0+0xc8>
    80000ae4:	40d000ef          	jal	ra,800016f0 <printf>
    80000ae8:	fa9ff06f          	j	80000a90 <vm_handler+0xc0>
    80000aec:	00002717          	auipc	a4,0x2
    80000af0:	dac70713          	addi	a4,a4,-596 # 80002898 <names+0x2b8>
    80000af4:	00002617          	auipc	a2,0x2
    80000af8:	da460613          	addi	a2,a2,-604 # 80002898 <names+0x2b8>
    80000afc:	00002517          	auipc	a0,0x2
    80000b00:	f3c50513          	addi	a0,a0,-196 # 80002a38 <dy.0+0xc8>
    80000b04:	3ed000ef          	jal	ra,800016f0 <printf>
    80000b08:	f89ff06f          	j	80000a90 <vm_handler+0xc0>
    80000b0c:	00267613          	andi	a2,a2,2
    80000b10:	00002697          	auipc	a3,0x2
    80000b14:	d8868693          	addi	a3,a3,-632 # 80002898 <names+0x2b8>
    80000b18:	00002717          	auipc	a4,0x2
    80000b1c:	ef070713          	addi	a4,a4,-272 # 80002a08 <dy.0+0x98>
    80000b20:	fa061ae3          	bnez	a2,80000ad4 <vm_handler+0x104>
    80000b24:	fc9ff06f          	j	80000aec <vm_handler+0x11c>
    80000b28:	02800613          	li	a2,40
    80000b2c:	00002597          	auipc	a1,0x2
    80000b30:	f2458593          	addi	a1,a1,-220 # 80002a50 <dy.0+0xe0>
    80000b34:	00002517          	auipc	a0,0x2
    80000b38:	dbc50513          	addi	a0,a0,-580 # 800028f0 <names+0x310>
    80000b3c:	3b5000ef          	jal	ra,800016f0 <printf>
    80000b40:	00100513          	li	a0,1
    80000b44:	4e4000ef          	jal	ra,80001028 <halt>

0000000080000b48 <vm_test>:
    80000b48:	fd010113          	addi	sp,sp,-48
    80000b4c:	00300613          	li	a2,3
    80000b50:	00002597          	auipc	a1,0x2
    80000b54:	f4858593          	addi	a1,a1,-184 # 80002a98 <dy.0+0x128>
    80000b58:	00002517          	auipc	a0,0x2
    80000b5c:	f4850513          	addi	a0,a0,-184 # 80002aa0 <dy.0+0x130>
    80000b60:	02113423          	sd	ra,40(sp)
    80000b64:	02813023          	sd	s0,32(sp)
    80000b68:	00913c23          	sd	s1,24(sp)
    80000b6c:	01213823          	sd	s2,16(sp)
    80000b70:	545000ef          	jal	ra,800018b4 <strncmp>
    80000b74:	00050e63          	beqz	a0,80000b90 <vm_test+0x48>
    80000b78:	00002597          	auipc	a1,0x2
    80000b7c:	f3058593          	addi	a1,a1,-208 # 80002aa8 <dy.0+0x138>
    80000b80:	00002517          	auipc	a0,0x2
    80000b84:	f2050513          	addi	a0,a0,-224 # 80002aa0 <dy.0+0x130>
    80000b88:	4dd000ef          	jal	ra,80001864 <strcmp>
    80000b8c:	10051063          	bnez	a0,80000c8c <vm_test+0x144>
    80000b90:	00013917          	auipc	s2,0x13
    80000b94:	3f090913          	addi	s2,s2,1008 # 80013f80 <prot>
    80000b98:	00090513          	mv	a0,s2
    80000b9c:	1ed000ef          	jal	ra,80001588 <protect>
    80000ba0:	01093603          	ld	a2,16(s2)
    80000ba4:	00893583          	ld	a1,8(s2)
    80000ba8:	00002517          	auipc	a0,0x2
    80000bac:	f2850513          	addi	a0,a0,-216 # 80002ad0 <dy.0+0x160>
    80000bb0:	341000ef          	jal	ra,800016f0 <printf>
    80000bb4:	00893783          	ld	a5,8(s2)
    80000bb8:	01093483          	ld	s1,16(s2)
    80000bbc:	00094697          	auipc	a3,0x94
    80000bc0:	5f468693          	addi	a3,a3,1524 # 800951b0 <st>
    80000bc4:	0006b403          	ld	s0,0(a3)
    80000bc8:	40f484b3          	sub	s1,s1,a5
    80000bcc:	0014d493          	srli	s1,s1,0x1
    80000bd0:	00092703          	lw	a4,0(s2)
    80000bd4:	00f484b3          	add	s1,s1,a5
    80000bd8:	00041c63          	bnez	s0,80000bf0 <vm_test+0xa8>
    80000bdc:	00010417          	auipc	s0,0x10
    80000be0:	f8c43403          	ld	s0,-116(s0) # 80010b68 <heap>
    80000be4:	02e477b3          	remu	a5,s0,a4
    80000be8:	00078863          	beqz	a5,80000bf8 <vm_test+0xb0>
    80000bec:	00140413          	addi	s0,s0,1
    80000bf0:	02e477b3          	remu	a5,s0,a4
    80000bf4:	fe079ce3          	bnez	a5,80000bec <vm_test+0xa4>
    80000bf8:	00870733          	add	a4,a4,s0
    80000bfc:	00f00613          	li	a2,15
    80000c00:	00010597          	auipc	a1,0x10
    80000c04:	f5058593          	addi	a1,a1,-176 # 80010b50 <code>
    80000c08:	00040513          	mv	a0,s0
    80000c0c:	00e6b023          	sd	a4,0(a3)
    80000c10:	50d000ef          	jal	ra,8000191c <memcpy>
    80000c14:	00300693          	li	a3,3
    80000c18:	00040613          	mv	a2,s0
    80000c1c:	00048593          	mv	a1,s1
    80000c20:	00013517          	auipc	a0,0x13
    80000c24:	36050513          	addi	a0,a0,864 # 80013f80 <prot>
    80000c28:	165000ef          	jal	ra,8000158c <map>
    80000c2c:	00040613          	mv	a2,s0
    80000c30:	00048593          	mv	a1,s1
    80000c34:	00002517          	auipc	a0,0x2
    80000c38:	ec450513          	addi	a0,a0,-316 # 80002af8 <dy.0+0x188>
    80000c3c:	2b5000ef          	jal	ra,800016f0 <printf>
    80000c40:	00048693          	mv	a3,s1
    80000c44:	00013597          	auipc	a1,0x13
    80000c48:	35c58593          	addi	a1,a1,860 # 80013fa0 <stack.0>
    80000c4c:	00014617          	auipc	a2,0x14
    80000c50:	35460613          	addi	a2,a2,852 # 80014fa0 <buf.0>
    80000c54:	00013517          	auipc	a0,0x13
    80000c58:	32c50513          	addi	a0,a0,812 # 80013f80 <prot>
    80000c5c:	135000ef          	jal	ra,80001590 <ucontext>
    80000c60:	00050793          	mv	a5,a0
    80000c64:	00100513          	li	a0,1
    80000c68:	00094717          	auipc	a4,0x94
    80000c6c:	54f73823          	sd	a5,1360(a4) # 800951b8 <uctx>
    80000c70:	7d0000ef          	jal	ra,80001440 <iset>
    80000c74:	02013403          	ld	s0,32(sp)
    80000c78:	02813083          	ld	ra,40(sp)
    80000c7c:	01813483          	ld	s1,24(sp)
    80000c80:	01013903          	ld	s2,16(sp)
    80000c84:	03010113          	addi	sp,sp,48
    80000c88:	7ac0006f          	j	80001434 <yield>
    80000c8c:	02013403          	ld	s0,32(sp)
    80000c90:	02813083          	ld	ra,40(sp)
    80000c94:	01813483          	ld	s1,24(sp)
    80000c98:	01013903          	ld	s2,16(sp)
    80000c9c:	00002517          	auipc	a0,0x2
    80000ca0:	e1450513          	addi	a0,a0,-492 # 80002ab0 <dy.0+0x140>
    80000ca4:	03010113          	addi	sp,sp,48
    80000ca8:	2490006f          	j	800016f0 <printf>

0000000080000cac <simple_trap>:
    80000cac:	00052783          	lw	a5,0(a0)
    80000cb0:	ff010113          	addi	sp,sp,-16
    80000cb4:	00813023          	sd	s0,0(sp)
    80000cb8:	00113423          	sd	ra,8(sp)
    80000cbc:	00500713          	li	a4,5
    80000cc0:	00058413          	mv	s0,a1
    80000cc4:	02e78463          	beq	a5,a4,80000cec <simple_trap+0x40>
    80000cc8:	00600713          	li	a4,6
    80000ccc:	04e78c63          	beq	a5,a4,80000d24 <simple_trap+0x78>
    80000cd0:	00100713          	li	a4,1
    80000cd4:	02e78a63          	beq	a5,a4,80000d08 <simple_trap+0x5c>
    80000cd8:	00813083          	ld	ra,8(sp)
    80000cdc:	00040513          	mv	a0,s0
    80000ce0:	00013403          	ld	s0,0(sp)
    80000ce4:	01010113          	addi	sp,sp,16
    80000ce8:	00008067          	ret
    80000cec:	07400513          	li	a0,116
    80000cf0:	328000ef          	jal	ra,80001018 <putch>
    80000cf4:	00813083          	ld	ra,8(sp)
    80000cf8:	00040513          	mv	a0,s0
    80000cfc:	00013403          	ld	s0,0(sp)
    80000d00:	01010113          	addi	sp,sp,16
    80000d04:	00008067          	ret
    80000d08:	07900513          	li	a0,121
    80000d0c:	30c000ef          	jal	ra,80001018 <putch>
    80000d10:	00813083          	ld	ra,8(sp)
    80000d14:	00040513          	mv	a0,s0
    80000d18:	00013403          	ld	s0,0(sp)
    80000d1c:	01010113          	addi	sp,sp,16
    80000d20:	00008067          	ret
    80000d24:	06400513          	li	a0,100
    80000d28:	2f0000ef          	jal	ra,80001018 <putch>
    80000d2c:	00813083          	ld	ra,8(sp)
    80000d30:	00040513          	mv	a0,s0
    80000d34:	00013403          	ld	s0,0(sp)
    80000d38:	01010113          	addi	sp,sp,16
    80000d3c:	00008067          	ret

0000000080000d40 <hello_intr>:
    80000d40:	fe010113          	addi	sp,sp,-32
    80000d44:	00002517          	auipc	a0,0x2
    80000d48:	de450513          	addi	a0,a0,-540 # 80002b28 <dy.0+0x1b8>
    80000d4c:	00113c23          	sd	ra,24(sp)
    80000d50:	00813823          	sd	s0,16(sp)
    80000d54:	19d000ef          	jal	ra,800016f0 <printf>
    80000d58:	00002517          	auipc	a0,0x2
    80000d5c:	df050513          	addi	a0,a0,-528 # 80002b48 <dy.0+0x1d8>
    80000d60:	191000ef          	jal	ra,800016f0 <printf>
    80000d64:	00810593          	addi	a1,sp,8
    80000d68:	00700513          	li	a0,7
    80000d6c:	524000ef          	jal	ra,80001290 <ioe_read>
    80000d70:	00100513          	li	a0,1
    80000d74:	00989437          	lui	s0,0x989
    80000d78:	6c8000ef          	jal	ra,80001440 <iset>
    80000d7c:	67f40413          	addi	s0,s0,1663 # 98967f <_entry_offset+0x98967f>
    80000d80:	00012423          	sw	zero,8(sp)
    80000d84:	00812783          	lw	a5,8(sp)
    80000d88:	00f44c63          	blt	s0,a5,80000da0 <hello_intr+0x60>
    80000d8c:	00812783          	lw	a5,8(sp)
    80000d90:	0017879b          	addiw	a5,a5,1
    80000d94:	00f12423          	sw	a5,8(sp)
    80000d98:	00812783          	lw	a5,8(sp)
    80000d9c:	fef458e3          	bge	s0,a5,80000d8c <hello_intr+0x4c>
    80000da0:	694000ef          	jal	ra,80001434 <yield>
    80000da4:	fddff06f          	j	80000d80 <hello_intr+0x40>

0000000080000da8 <devscan>:
    80000da8:	00010797          	auipc	a5,0x10
    80000dac:	dc078793          	addi	a5,a5,-576 # 80010b68 <heap>
    80000db0:	0007b583          	ld	a1,0(a5)
    80000db4:	0087b603          	ld	a2,8(a5)
    80000db8:	fb010113          	addi	sp,sp,-80
    80000dbc:	00002517          	auipc	a0,0x2
    80000dc0:	db450513          	addi	a0,a0,-588 # 80002b70 <dy.0+0x200>
    80000dc4:	04113423          	sd	ra,72(sp)
    80000dc8:	03213823          	sd	s2,48(sp)
    80000dcc:	04813023          	sd	s0,64(sp)
    80000dd0:	02913c23          	sd	s1,56(sp)
    80000dd4:	03313423          	sd	s3,40(sp)
    80000dd8:	03413023          	sd	s4,32(sp)
    80000ddc:	115000ef          	jal	ra,800016f0 <printf>
    80000de0:	00002517          	auipc	a0,0x2
    80000de4:	da850513          	addi	a0,a0,-600 # 80002b88 <dy.0+0x218>
    80000de8:	109000ef          	jal	ra,800016f0 <printf>
    80000dec:	00810593          	addi	a1,sp,8
    80000df0:	00600513          	li	a0,6
    80000df4:	49c000ef          	jal	ra,80001290 <ioe_read>
    80000df8:	00813903          	ld	s2,8(sp)
    80000dfc:	3e800793          	li	a5,1000
    80000e00:	00012223          	sw	zero,4(sp)
    80000e04:	02f95933          	divu	s2,s2,a5
    80000e08:	00412783          	lw	a5,4(sp)
    80000e0c:	00989737          	lui	a4,0x989
    80000e10:	67f70713          	addi	a4,a4,1663 # 98967f <_entry_offset+0x98967f>
    80000e14:	0009091b          	sext.w	s2,s2
    80000e18:	00f74c63          	blt	a4,a5,80000e30 <devscan+0x88>
    80000e1c:	00412783          	lw	a5,4(sp)
    80000e20:	0017879b          	addiw	a5,a5,1
    80000e24:	00f12223          	sw	a5,4(sp)
    80000e28:	00412783          	lw	a5,4(sp)
    80000e2c:	fef758e3          	bge	a4,a5,80000e1c <devscan+0x74>
    80000e30:	00810593          	addi	a1,sp,8
    80000e34:	00600513          	li	a0,6
    80000e38:	458000ef          	jal	ra,80001290 <ioe_read>
    80000e3c:	00813583          	ld	a1,8(sp)
    80000e40:	3e800793          	li	a5,1000
    80000e44:	00002517          	auipc	a0,0x2
    80000e48:	d6450513          	addi	a0,a0,-668 # 80002ba8 <dy.0+0x238>
    80000e4c:	02f5d5b3          	divu	a1,a1,a5
    80000e50:	00014417          	auipc	s0,0x14
    80000e54:	42040413          	addi	s0,s0,1056 # 80015270 <vmem+0xd0>
    80000e58:	00094497          	auipc	s1,0x94
    80000e5c:	34848493          	addi	s1,s1,840 # 800951a0 <entry>
    80000e60:	412585bb          	subw	a1,a1,s2
    80000e64:	08d000ef          	jal	ra,800016f0 <printf>
    80000e68:	00810593          	addi	a1,sp,8
    80000e6c:	00900513          	li	a0,9
    80000e70:	420000ef          	jal	ra,80001290 <ioe_read>
    80000e74:	00c12983          	lw	s3,12(sp)
    80000e78:	01012903          	lw	s2,16(sp)
    80000e7c:	00002517          	auipc	a0,0x2
    80000e80:	d4c50513          	addi	a0,a0,-692 # 80002bc8 <dy.0+0x258>
    80000e84:	00098593          	mv	a1,s3
    80000e88:	00090613          	mv	a2,s2
    80000e8c:	065000ef          	jal	ra,800016f0 <printf>
    80000e90:	720000ef          	jal	ra,800015b0 <rand>
    80000e94:	00a40023          	sb	a0,0(s0)
    80000e98:	00140413          	addi	s0,s0,1
    80000e9c:	fe941ae3          	bne	s0,s1,80000e90 <devscan+0xe8>
    80000ea0:	41f9d71b          	sraiw	a4,s3,0x1f
    80000ea4:	01e7571b          	srliw	a4,a4,0x1e
    80000ea8:	0137073b          	addw	a4,a4,s3
    80000eac:	00014797          	auipc	a5,0x14
    80000eb0:	2f478793          	addi	a5,a5,756 # 800151a0 <vmem>
    80000eb4:	4027571b          	sraiw	a4,a4,0x2
    80000eb8:	00e79323          	sh	a4,6(a5)
    80000ebc:	00014717          	auipc	a4,0x14
    80000ec0:	2e071623          	sh	zero,748(a4) # 800151a8 <vmem+0x8>
    80000ec4:	01f9d69b          	srliw	a3,s3,0x1f
    80000ec8:	02500713          	li	a4,37
    80000ecc:	00e79923          	sh	a4,18(a5)
    80000ed0:	013686bb          	addw	a3,a3,s3
    80000ed4:	00a00713          	li	a4,10
    80000ed8:	ffff0837          	lui	a6,0xffff0
    80000edc:	fff00613          	li	a2,-1
    80000ee0:	4016d69b          	sraiw	a3,a3,0x1
    80000ee4:	00180813          	addi	a6,a6,1 # ffffffffffff0001 <_end+0xffffffff7ff52001>
    80000ee8:	00e79a23          	sh	a4,20(a5)
    80000eec:	f9c9091b          	addiw	s2,s2,-100
    80000ef0:	0d000713          	li	a4,208
    80000ef4:	00e79b23          	sh	a4,22(a5)
    80000ef8:	0107a023          	sw	a6,0(a5)
    80000efc:	00d79523          	sh	a3,10(a5)
    80000f00:	00c79223          	sh	a2,4(a5)
    80000f04:	00c79723          	sh	a2,14(a5)
    80000f08:	00c79823          	sh	a2,16(a5)
    80000f0c:	01279623          	sh	s2,12(a5)
    80000f10:	00810593          	addi	a1,sp,8
    80000f14:	00c00513          	li	a0,12
    80000f18:	00f13823          	sd	a5,16(sp)
    80000f1c:	000807b7          	lui	a5,0x80
    80000f20:	00f12c23          	sw	a5,24(sp)
    80000f24:	00014717          	auipc	a4,0x14
    80000f28:	28071a23          	sh	zero,660(a4) # 800151b8 <vmem+0x18>
    80000f2c:	00012423          	sw	zero,8(sp)
    80000f30:	37c000ef          	jal	ra,800012ac <ioe_write>
    80000f34:	00d00513          	li	a0,13
    80000f38:	00810593          	addi	a1,sp,8
    80000f3c:	00012423          	sw	zero,8(sp)
    80000f40:	36c000ef          	jal	ra,800012ac <ioe_write>
    80000f44:	00810593          	addi	a1,sp,8
    80000f48:	01200513          	li	a0,18
    80000f4c:	344000ef          	jal	ra,80001290 <ioe_read>
    80000f50:	00c12403          	lw	s0,12(sp)
    80000f54:	01012583          	lw	a1,16(sp)
    80000f58:	00002517          	auipc	a0,0x2
    80000f5c:	c8850513          	addi	a0,a0,-888 # 80002be0 <dy.0+0x270>
    80000f60:	00040613          	mv	a2,s0
    80000f64:	78c000ef          	jal	ra,800016f0 <printf>
    80000f68:	20000793          	li	a5,512
    80000f6c:	0287c7bb          	divw	a5,a5,s0
    80000f70:	00014497          	auipc	s1,0x14
    80000f74:	03048493          	addi	s1,s1,48 # 80014fa0 <buf.0>
    80000f78:	00810593          	addi	a1,sp,8
    80000f7c:	01400513          	li	a0,20
    80000f80:	00913823          	sd	s1,16(sp)
    80000f84:	00010423          	sb	zero,8(sp)
    80000f88:	00012c23          	sw	zero,24(sp)
    80000f8c:	00002917          	auipc	s2,0x2
    80000f90:	c8c90913          	addi	s2,s2,-884 # 80002c18 <dy.0+0x2a8>
    80000f94:	00014417          	auipc	s0,0x14
    80000f98:	00e40413          	addi	s0,s0,14 # 80014fa2 <buf.0+0x2>
    80000f9c:	00014997          	auipc	s3,0x14
    80000fa0:	20498993          	addi	s3,s3,516 # 800151a0 <vmem>
    80000fa4:	00002a17          	auipc	s4,0x2
    80000fa8:	d8ca0a13          	addi	s4,s4,-628 # 80002d30 <dy.0+0x3c0>
    80000fac:	00f12e23          	sw	a5,28(sp)
    80000fb0:	2fc000ef          	jal	ra,800012ac <ioe_write>
    80000fb4:	0014c603          	lbu	a2,1(s1)
    80000fb8:	0004c583          	lbu	a1,0(s1)
    80000fbc:	00090513          	mv	a0,s2
    80000fc0:	00400493          	li	s1,4
    80000fc4:	72c000ef          	jal	ra,800016f0 <printf>
    80000fc8:	408484bb          	subw	s1,s1,s0
    80000fcc:	00090513          	mv	a0,s2
    80000fd0:	03340463          	beq	s0,s3,80000ff8 <devscan+0x250>
    80000fd4:	00144603          	lbu	a2,1(s0)
    80000fd8:	00044583          	lbu	a1,0(s0)
    80000fdc:	714000ef          	jal	ra,800016f0 <printf>
    80000fe0:	008487bb          	addw	a5,s1,s0
    80000fe4:	01f7f793          	andi	a5,a5,31
    80000fe8:	02078063          	beqz	a5,80001008 <devscan+0x260>
    80000fec:	00240413          	addi	s0,s0,2
    80000ff0:	00090513          	mv	a0,s2
    80000ff4:	ff3410e3          	bne	s0,s3,80000fd4 <devscan+0x22c>
    80000ff8:	00002517          	auipc	a0,0x2
    80000ffc:	c3050513          	addi	a0,a0,-976 # 80002c28 <dy.0+0x2b8>
    80001000:	6f0000ef          	jal	ra,800016f0 <printf>
    80001004:	0000006f          	j	80001004 <devscan+0x25c>
    80001008:	000a0513          	mv	a0,s4
    8000100c:	6e4000ef          	jal	ra,800016f0 <printf>
    80001010:	00240413          	addi	s0,s0,2
    80001014:	fddff06f          	j	80000ff0 <devscan+0x248>

0000000080001018 <putch>:
    80001018:	00500793          	li	a5,5
    8000101c:	01d79793          	slli	a5,a5,0x1d
    80001020:	3ea78c23          	sb	a0,1016(a5) # 803f8 <_entry_offset+0x803f8>
    80001024:	00008067          	ret

0000000080001028 <halt>:
    80001028:	00050513          	mv	a0,a0
    8000102c:	00100073          	ebreak
    80001030:	0000006f          	j	80001030 <halt+0x8>

0000000080001034 <_trm_init>:
    80001034:	ff010113          	addi	sp,sp,-16
    80001038:	00002517          	auipc	a0,0x2
    8000103c:	d0050513          	addi	a0,a0,-768 # 80002d38 <mainargs>
    80001040:	00113423          	sd	ra,8(sp)
    80001044:	fcdfe0ef          	jal	ra,80000010 <main>
    80001048:	00050513          	mv	a0,a0
    8000104c:	00100073          	ebreak
    80001050:	0000006f          	j	80001050 <_trm_init+0x1c>

0000000080001054 <__am_timer_config>:
    80001054:	00100793          	li	a5,1
    80001058:	00f50023          	sb	a5,0(a0)
    8000105c:	00f500a3          	sb	a5,1(a0)
    80001060:	00008067          	ret

0000000080001064 <__am_input_config>:
    80001064:	00100793          	li	a5,1
    80001068:	00f50023          	sb	a5,0(a0)
    8000106c:	00008067          	ret

0000000080001070 <__am_gpu_config>:
    80001070:	00500793          	li	a5,5
    80001074:	01d79793          	slli	a5,a5,0x1d
    80001078:	1007a703          	lw	a4,256(a5)
    8000107c:	1007a783          	lw	a5,256(a5)
    80001080:	00100693          	li	a3,1
    80001084:	0107571b          	srliw	a4,a4,0x10
    80001088:	03079793          	slli	a5,a5,0x30
    8000108c:	0307d793          	srli	a5,a5,0x30
    80001090:	00d51023          	sh	a3,0(a0)
    80001094:	00e52223          	sw	a4,4(a0)
    80001098:	00f52423          	sw	a5,8(a0)
    8000109c:	00052623          	sw	zero,12(a0)
    800010a0:	00008067          	ret

00000000800010a4 <__am_gpu_fbdraw>:
    800010a4:	fe010113          	addi	sp,sp,-32
    800010a8:	00813823          	sd	s0,16(sp)
    800010ac:	00010797          	auipc	a5,0x10
    800010b0:	b147b783          	ld	a5,-1260(a5) # 80010bc0 <lut+0x48>
    800010b4:	00050413          	mv	s0,a0
    800010b8:	00113c23          	sd	ra,24(sp)
    800010bc:	00010513          	mv	a0,sp
    800010c0:	000780e7          	jalr	a5
    800010c4:	01442783          	lw	a5,20(s0)
    800010c8:	00412303          	lw	t1,4(sp)
    800010cc:	00812803          	lw	a6,8(sp)
    800010d0:	08f05663          	blez	a5,8000115c <__am_gpu_fbdraw+0xb8>
    800010d4:	01042683          	lw	a3,16(s0)
    800010d8:	00000513          	li	a0,0
    800010dc:	a1000e37          	lui	t3,0xa1000
    800010e0:	00000713          	li	a4,0
    800010e4:	00000613          	li	a2,0
    800010e8:	06d05663          	blez	a3,80001154 <__am_gpu_fbdraw+0xb0>
    800010ec:	00442783          	lw	a5,4(s0)
    800010f0:	00a785bb          	addw	a1,a5,a0
    800010f4:	00058793          	mv	a5,a1
    800010f8:	0505d663          	bge	a1,a6,80001144 <__am_gpu_fbdraw+0xa0>
    800010fc:	00042583          	lw	a1,0(s0)
    80001100:	00c588bb          	addw	a7,a1,a2
    80001104:	0468d063          	bge	a7,t1,80001144 <__am_gpu_fbdraw+0xa0>
    80001108:	02a686bb          	mulw	a3,a3,a0
    8000110c:	00843883          	ld	a7,8(s0)
    80001110:	026787bb          	mulw	a5,a5,t1
    80001114:	00e686b3          	add	a3,a3,a4
    80001118:	00269693          	slli	a3,a3,0x2
    8000111c:	00d886b3          	add	a3,a7,a3
    80001120:	0006a683          	lw	a3,0(a3)
    80001124:	00b787bb          	addw	a5,a5,a1
    80001128:	00c787bb          	addw	a5,a5,a2
    8000112c:	0027979b          	slliw	a5,a5,0x2
    80001130:	01c787bb          	addw	a5,a5,t3
    80001134:	02079793          	slli	a5,a5,0x20
    80001138:	0207d793          	srli	a5,a5,0x20
    8000113c:	00d7a023          	sw	a3,0(a5)
    80001140:	01042683          	lw	a3,16(s0)
    80001144:	00170713          	addi	a4,a4,1
    80001148:	0007061b          	sext.w	a2,a4
    8000114c:	fad640e3          	blt	a2,a3,800010ec <__am_gpu_fbdraw+0x48>
    80001150:	01442783          	lw	a5,20(s0)
    80001154:	0015051b          	addiw	a0,a0,1
    80001158:	f8f544e3          	blt	a0,a5,800010e0 <__am_gpu_fbdraw+0x3c>
    8000115c:	01844783          	lbu	a5,24(s0)
    80001160:	00078a63          	beqz	a5,80001174 <__am_gpu_fbdraw+0xd0>
    80001164:	00500793          	li	a5,5
    80001168:	01d79793          	slli	a5,a5,0x1d
    8000116c:	00100713          	li	a4,1
    80001170:	10e7a223          	sw	a4,260(a5)
    80001174:	01813083          	ld	ra,24(sp)
    80001178:	01013403          	ld	s0,16(sp)
    8000117c:	02010113          	addi	sp,sp,32
    80001180:	00008067          	ret

0000000080001184 <__am_gpu_status>:
    80001184:	00100793          	li	a5,1
    80001188:	00f50023          	sb	a5,0(a0)
    8000118c:	00008067          	ret

0000000080001190 <__am_input_keybrd>:
    80001190:	00500793          	li	a5,5
    80001194:	01d79793          	slli	a5,a5,0x1d
    80001198:	0607a783          	lw	a5,96(a5)
    8000119c:	00050023          	sb	zero,0(a0)
    800011a0:	00f7d713          	srli	a4,a5,0xf
    800011a4:	00f52223          	sw	a5,4(a0)
    800011a8:	00177713          	andi	a4,a4,1
    800011ac:	00070c63          	beqz	a4,800011c4 <__am_input_keybrd+0x34>
    800011b0:	03479793          	slli	a5,a5,0x34
    800011b4:	0347d793          	srli	a5,a5,0x34
    800011b8:	00100713          	li	a4,1
    800011bc:	00e50023          	sb	a4,0(a0)
    800011c0:	00f52223          	sw	a5,4(a0)
    800011c4:	00008067          	ret

00000000800011c8 <fail>:
    800011c8:	00008067          	ret

00000000800011cc <ioe_init>:
    800011cc:	fe010113          	addi	sp,sp,-32
    800011d0:	00113c23          	sd	ra,24(sp)
    800011d4:	00813823          	sd	s0,16(sp)
    800011d8:	00913423          	sd	s1,8(sp)
    800011dc:	00010797          	auipc	a5,0x10
    800011e0:	99c78793          	addi	a5,a5,-1636 # 80010b78 <lut>
    800011e4:	00010697          	auipc	a3,0x10
    800011e8:	d9468693          	addi	a3,a3,-620 # 80010f78 <next>
    800011ec:	00000617          	auipc	a2,0x0
    800011f0:	fdc60613          	addi	a2,a2,-36 # 800011c8 <fail>
    800011f4:	00c0006f          	j	80001200 <ioe_init+0x34>
    800011f8:	00878793          	addi	a5,a5,8
    800011fc:	00d78c63          	beq	a5,a3,80001214 <ioe_init+0x48>
    80001200:	0007b703          	ld	a4,0(a5)
    80001204:	fe071ae3          	bnez	a4,800011f8 <ioe_init+0x2c>
    80001208:	00c7b023          	sd	a2,0(a5)
    8000120c:	00878793          	addi	a5,a5,8
    80001210:	fed798e3          	bne	a5,a3,80001200 <ioe_init+0x34>
    80001214:	0b4000ef          	jal	ra,800012c8 <__am_timer_init>
    80001218:	00500793          	li	a5,5
    8000121c:	01d79793          	slli	a5,a5,0x1d
    80001220:	1007a683          	lw	a3,256(a5)
    80001224:	00002517          	auipc	a0,0x2
    80001228:	a1450513          	addi	a0,a0,-1516 # 80002c38 <dy.0+0x2c8>
    8000122c:	03069493          	slli	s1,a3,0x30
    80001230:	0304d493          	srli	s1,s1,0x30
    80001234:	4106d593          	srai	a1,a3,0x10
    80001238:	00048613          	mv	a2,s1
    8000123c:	00068413          	mv	s0,a3
    80001240:	4b0000ef          	jal	ra,800016f0 <printf>
    80001244:	029406bb          	mulw	a3,s0,s1
    80001248:	02d05063          	blez	a3,80001268 <ioe_init+0x9c>
    8000124c:	0a100713          	li	a4,161
    80001250:	01871713          	slli	a4,a4,0x18
    80001254:	00000793          	li	a5,0
    80001258:	00f72023          	sw	a5,0(a4)
    8000125c:	0017879b          	addiw	a5,a5,1
    80001260:	00470713          	addi	a4,a4,4
    80001264:	fef69ae3          	bne	a3,a5,80001258 <ioe_init+0x8c>
    80001268:	01813083          	ld	ra,24(sp)
    8000126c:	01013403          	ld	s0,16(sp)
    80001270:	00500793          	li	a5,5
    80001274:	01d79793          	slli	a5,a5,0x1d
    80001278:	00100713          	li	a4,1
    8000127c:	10e7a223          	sw	a4,260(a5)
    80001280:	00813483          	ld	s1,8(sp)
    80001284:	00100513          	li	a0,1
    80001288:	02010113          	addi	sp,sp,32
    8000128c:	00008067          	ret

0000000080001290 <ioe_read>:
    80001290:	00351513          	slli	a0,a0,0x3
    80001294:	00010797          	auipc	a5,0x10
    80001298:	8e478793          	addi	a5,a5,-1820 # 80010b78 <lut>
    8000129c:	00a787b3          	add	a5,a5,a0
    800012a0:	0007b783          	ld	a5,0(a5)
    800012a4:	00058513          	mv	a0,a1
    800012a8:	00078067          	jr	a5

00000000800012ac <ioe_write>:
    800012ac:	00351513          	slli	a0,a0,0x3
    800012b0:	00010797          	auipc	a5,0x10
    800012b4:	8c878793          	addi	a5,a5,-1848 # 80010b78 <lut>
    800012b8:	00a787b3          	add	a5,a5,a0
    800012bc:	0007b783          	ld	a5,0(a5)
    800012c0:	00058513          	mv	a0,a1
    800012c4:	00078067          	jr	a5

00000000800012c8 <__am_timer_init>:
    800012c8:	00500793          	li	a5,5
    800012cc:	01d79793          	slli	a5,a5,0x1d
    800012d0:	0487a683          	lw	a3,72(a5)
    800012d4:	04f78713          	addi	a4,a5,79
    800012d8:	04f7c783          	lbu	a5,79(a5)
    800012dc:	00174783          	lbu	a5,1(a4)
    800012e0:	00274783          	lbu	a5,2(a4)
    800012e4:	00374783          	lbu	a5,3(a4)
    800012e8:	00094797          	auipc	a5,0x94
    800012ec:	ec07bc23          	sd	zero,-296(a5) # 800951c0 <_init_time_record>
    800012f0:	00008067          	ret

00000000800012f4 <__am_timer_uptime>:
    800012f4:	00500713          	li	a4,5
    800012f8:	01d71713          	slli	a4,a4,0x1d
    800012fc:	04872783          	lw	a5,72(a4)
    80001300:	04f74803          	lbu	a6,79(a4)
    80001304:	05074603          	lbu	a2,80(a4)
    80001308:	05174683          	lbu	a3,81(a4)
    8000130c:	05274703          	lbu	a4,82(a4)
    80001310:	00861613          	slli	a2,a2,0x8
    80001314:	01066633          	or	a2,a2,a6
    80001318:	01069693          	slli	a3,a3,0x10
    8000131c:	00c6e6b3          	or	a3,a3,a2
    80001320:	01871713          	slli	a4,a4,0x18
    80001324:	02079793          	slli	a5,a5,0x20
    80001328:	00d76733          	or	a4,a4,a3
    8000132c:	0207d793          	srli	a5,a5,0x20
    80001330:	00094697          	auipc	a3,0x94
    80001334:	e906b683          	ld	a3,-368(a3) # 800951c0 <_init_time_record>
    80001338:	40d787b3          	sub	a5,a5,a3
    8000133c:	02071713          	slli	a4,a4,0x20
    80001340:	00e787b3          	add	a5,a5,a4
    80001344:	00f53023          	sd	a5,0(a0)
    80001348:	00008067          	ret

000000008000134c <__am_timer_rtc>:
    8000134c:	76c00793          	li	a5,1900
    80001350:	00052a23          	sw	zero,20(a0)
    80001354:	00052823          	sw	zero,16(a0)
    80001358:	00052623          	sw	zero,12(a0)
    8000135c:	00052423          	sw	zero,8(a0)
    80001360:	00052223          	sw	zero,4(a0)
    80001364:	00f52023          	sw	a5,0(a0)
    80001368:	00008067          	ret

000000008000136c <__am_irq_handle>:
    8000136c:	00094797          	auipc	a5,0x94
    80001370:	e5c7b783          	ld	a5,-420(a5) # 800951c8 <user_handler>
    80001374:	00050593          	mv	a1,a0
    80001378:	06078c63          	beqz	a5,800013f0 <__am_irq_handle+0x84>
    8000137c:	10053683          	ld	a3,256(a0)
    80001380:	fb010113          	addi	sp,sp,-80
    80001384:	04113423          	sd	ra,72(sp)
    80001388:	02013023          	sd	zero,32(sp)
    8000138c:	02013423          	sd	zero,40(sp)
    80001390:	02013823          	sd	zero,48(sp)
    80001394:	02013c23          	sd	zero,56(sp)
    80001398:	01300613          	li	a2,19
    8000139c:	00200713          	li	a4,2
    800013a0:	00d67a63          	bgeu	a2,a3,800013b4 <__am_irq_handle+0x48>
    800013a4:	fff00613          	li	a2,-1
    800013a8:	00400713          	li	a4,4
    800013ac:	00c69463          	bne	a3,a2,800013b4 <__am_irq_handle+0x48>
    800013b0:	00100713          	li	a4,1
    800013b4:	02e12023          	sw	a4,32(sp)
    800013b8:	02013703          	ld	a4,32(sp)
    800013bc:	00010513          	mv	a0,sp
    800013c0:	00e13023          	sd	a4,0(sp)
    800013c4:	02813703          	ld	a4,40(sp)
    800013c8:	00e13423          	sd	a4,8(sp)
    800013cc:	03013703          	ld	a4,48(sp)
    800013d0:	00e13823          	sd	a4,16(sp)
    800013d4:	03813703          	ld	a4,56(sp)
    800013d8:	00e13c23          	sd	a4,24(sp)
    800013dc:	000780e7          	jalr	a5
    800013e0:	00050a63          	beqz	a0,800013f4 <__am_irq_handle+0x88>
    800013e4:	04813083          	ld	ra,72(sp)
    800013e8:	05010113          	addi	sp,sp,80
    800013ec:	00008067          	ret
    800013f0:	00008067          	ret
    800013f4:	01400613          	li	a2,20
    800013f8:	00002597          	auipc	a1,0x2
    800013fc:	86058593          	addi	a1,a1,-1952 # 80002c58 <dy.0+0x2e8>
    80001400:	00001517          	auipc	a0,0x1
    80001404:	4f050513          	addi	a0,a0,1264 # 800028f0 <names+0x310>
    80001408:	2e8000ef          	jal	ra,800016f0 <printf>
    8000140c:	00100513          	li	a0,1
    80001410:	c19ff0ef          	jal	ra,80001028 <halt>

0000000080001414 <cte_init>:
    80001414:	00050793          	mv	a5,a0
    80001418:	00000717          	auipc	a4,0x0
    8000141c:	02c70713          	addi	a4,a4,44 # 80001444 <__am_asm_trap>
    80001420:	30571073          	csrw	mtvec,a4
    80001424:	00100513          	li	a0,1
    80001428:	00094717          	auipc	a4,0x94
    8000142c:	daf73023          	sd	a5,-608(a4) # 800951c8 <user_handler>
    80001430:	00008067          	ret

0000000080001434 <yield>:
    80001434:	fff00893          	li	a7,-1
    80001438:	00000073          	ecall
    8000143c:	00008067          	ret

0000000080001440 <iset>:
    80001440:	00008067          	ret

0000000080001444 <__am_asm_trap>:
    80001444:	ee810113          	addi	sp,sp,-280
    80001448:	00113423          	sd	ra,8(sp)
    8000144c:	00313c23          	sd	gp,24(sp)
    80001450:	02413023          	sd	tp,32(sp)
    80001454:	02513423          	sd	t0,40(sp)
    80001458:	02613823          	sd	t1,48(sp)
    8000145c:	02713c23          	sd	t2,56(sp)
    80001460:	04813023          	sd	s0,64(sp)
    80001464:	04913423          	sd	s1,72(sp)
    80001468:	04a13823          	sd	a0,80(sp)
    8000146c:	04b13c23          	sd	a1,88(sp)
    80001470:	06c13023          	sd	a2,96(sp)
    80001474:	06d13423          	sd	a3,104(sp)
    80001478:	06e13823          	sd	a4,112(sp)
    8000147c:	06f13c23          	sd	a5,120(sp)
    80001480:	09013023          	sd	a6,128(sp)
    80001484:	09113423          	sd	a7,136(sp)
    80001488:	09213823          	sd	s2,144(sp)
    8000148c:	09313c23          	sd	s3,152(sp)
    80001490:	0b413023          	sd	s4,160(sp)
    80001494:	0b513423          	sd	s5,168(sp)
    80001498:	0b613823          	sd	s6,176(sp)
    8000149c:	0b713c23          	sd	s7,184(sp)
    800014a0:	0d813023          	sd	s8,192(sp)
    800014a4:	0d913423          	sd	s9,200(sp)
    800014a8:	0da13823          	sd	s10,208(sp)
    800014ac:	0db13c23          	sd	s11,216(sp)
    800014b0:	0fc13023          	sd	t3,224(sp)
    800014b4:	0fd13423          	sd	t4,232(sp)
    800014b8:	0fe13823          	sd	t5,240(sp)
    800014bc:	0ff13c23          	sd	t6,248(sp)
    800014c0:	00010293          	mv	t0,sp
    800014c4:	11828293          	addi	t0,t0,280
    800014c8:	00513823          	sd	t0,16(sp)
    800014cc:	342022f3          	csrr	t0,mcause
    800014d0:	30002373          	csrr	t1,mstatus
    800014d4:	341023f3          	csrr	t2,mepc
    800014d8:	10513023          	sd	t0,256(sp)
    800014dc:	10613423          	sd	t1,264(sp)
    800014e0:	10713823          	sd	t2,272(sp)
    800014e4:	00010513          	mv	a0,sp
    800014e8:	e85ff0ef          	jal	ra,8000136c <__am_irq_handle>
    800014ec:	10813303          	ld	t1,264(sp)
    800014f0:	11013383          	ld	t2,272(sp)
    800014f4:	00438393          	addi	t2,t2,4
    800014f8:	30031073          	csrw	mstatus,t1
    800014fc:	34139073          	csrw	mepc,t2
    80001500:	00813083          	ld	ra,8(sp)
    80001504:	01813183          	ld	gp,24(sp)
    80001508:	02013203          	ld	tp,32(sp)
    8000150c:	02813283          	ld	t0,40(sp)
    80001510:	03013303          	ld	t1,48(sp)
    80001514:	03813383          	ld	t2,56(sp)
    80001518:	04013403          	ld	s0,64(sp)
    8000151c:	04813483          	ld	s1,72(sp)
    80001520:	05013503          	ld	a0,80(sp)
    80001524:	05813583          	ld	a1,88(sp)
    80001528:	06013603          	ld	a2,96(sp)
    8000152c:	06813683          	ld	a3,104(sp)
    80001530:	07013703          	ld	a4,112(sp)
    80001534:	07813783          	ld	a5,120(sp)
    80001538:	08013803          	ld	a6,128(sp)
    8000153c:	08813883          	ld	a7,136(sp)
    80001540:	09013903          	ld	s2,144(sp)
    80001544:	09813983          	ld	s3,152(sp)
    80001548:	0a013a03          	ld	s4,160(sp)
    8000154c:	0a813a83          	ld	s5,168(sp)
    80001550:	0b013b03          	ld	s6,176(sp)
    80001554:	0b813b83          	ld	s7,184(sp)
    80001558:	0c013c03          	ld	s8,192(sp)
    8000155c:	0c813c83          	ld	s9,200(sp)
    80001560:	0d013d03          	ld	s10,208(sp)
    80001564:	0d813d83          	ld	s11,216(sp)
    80001568:	0e013e03          	ld	t3,224(sp)
    8000156c:	0e813e83          	ld	t4,232(sp)
    80001570:	0f013f03          	ld	t5,240(sp)
    80001574:	0f813f83          	ld	t6,248(sp)
    80001578:	11810113          	addi	sp,sp,280
    8000157c:	30200073          	mret

0000000080001580 <vme_init>:
    80001580:	00000513          	li	a0,0
    80001584:	00008067          	ret

0000000080001588 <protect>:
    80001588:	00008067          	ret

000000008000158c <map>:
    8000158c:	00008067          	ret

0000000080001590 <ucontext>:
    80001590:	ff010113          	addi	sp,sp,-16
    80001594:	00000513          	li	a0,0
    80001598:	01010113          	addi	sp,sp,16
    8000159c:	00008067          	ret

00000000800015a0 <mpe_init>:
    800015a0:	00000513          	li	a0,0
    800015a4:	00008067          	ret

00000000800015a8 <cpu_current>:
    800015a8:	00000513          	li	a0,0
    800015ac:	00008067          	ret

00000000800015b0 <rand>:
    800015b0:	00010697          	auipc	a3,0x10
    800015b4:	9c868693          	addi	a3,a3,-1592 # 80010f78 <next>
    800015b8:	0006b783          	ld	a5,0(a3)
    800015bc:	41c65737          	lui	a4,0x41c65
    800015c0:	e6d70713          	addi	a4,a4,-403 # 41c64e6d <_entry_offset+0x41c64e6d>
    800015c4:	02e787b3          	mul	a5,a5,a4
    800015c8:	00003737          	lui	a4,0x3
    800015cc:	03970713          	addi	a4,a4,57 # 3039 <_entry_offset+0x3039>
    800015d0:	00e787b3          	add	a5,a5,a4
    800015d4:	02179513          	slli	a0,a5,0x21
    800015d8:	00f6b023          	sd	a5,0(a3)
    800015dc:	03155513          	srli	a0,a0,0x31
    800015e0:	00008067          	ret

00000000800015e4 <itoa>:
    800015e4:	00001797          	auipc	a5,0x1
    800015e8:	6bc78793          	addi	a5,a5,1724 # 80002ca0 <dy.0+0x330>
    800015ec:	0007be03          	ld	t3,0(a5)
    800015f0:	0087b303          	ld	t1,8(a5)
    800015f4:	0107b883          	ld	a7,16(a5)
    800015f8:	0187b803          	ld	a6,24(a5)
    800015fc:	0207a683          	lw	a3,32(a5)
    80001600:	0247c703          	lbu	a4,36(a5)
    80001604:	f7010113          	addi	sp,sp,-144
    80001608:	00050793          	mv	a5,a0
    8000160c:	01c13023          	sd	t3,0(sp)
    80001610:	00613423          	sd	t1,8(sp)
    80001614:	01113823          	sd	a7,16(sp)
    80001618:	01013c23          	sd	a6,24(sp)
    8000161c:	02d12023          	sw	a3,32(sp)
    80001620:	02e10223          	sb	a4,36(sp)
    80001624:	02013423          	sd	zero,40(sp)
    80001628:	02013823          	sd	zero,48(sp)
    8000162c:	02013c23          	sd	zero,56(sp)
    80001630:	04013023          	sd	zero,64(sp)
    80001634:	04013423          	sd	zero,72(sp)
    80001638:	04013823          	sd	zero,80(sp)
    8000163c:	04013c23          	sd	zero,88(sp)
    80001640:	06013023          	sd	zero,96(sp)
    80001644:	06013423          	sd	zero,104(sp)
    80001648:	06013823          	sd	zero,112(sp)
    8000164c:	06013c23          	sd	zero,120(sp)
    80001650:	08013023          	sd	zero,128(sp)
    80001654:	08012423          	sw	zero,136(sp)
    80001658:	00058513          	mv	a0,a1
    8000165c:	0607c863          	bltz	a5,800016cc <itoa+0xe8>
    80001660:	00058713          	mv	a4,a1
    80001664:	06078e63          	beqz	a5,800016e0 <itoa+0xfc>
    80001668:	02810893          	addi	a7,sp,40
    8000166c:	00000813          	li	a6,0
    80001670:	02c7e6bb          	remw	a3,a5,a2
    80001674:	00188893          	addi	a7,a7,1
    80001678:	00080313          	mv	t1,a6
    8000167c:	0018081b          	addiw	a6,a6,1
    80001680:	02c7c7bb          	divw	a5,a5,a2
    80001684:	09068693          	addi	a3,a3,144
    80001688:	002686b3          	add	a3,a3,sp
    8000168c:	f706c683          	lbu	a3,-144(a3)
    80001690:	fed88fa3          	sb	a3,-1(a7)
    80001694:	fcf04ee3          	bgtz	a5,80001670 <itoa+0x8c>
    80001698:	0013061b          	addiw	a2,t1,1
    8000169c:	02810793          	addi	a5,sp,40
    800016a0:	006787b3          	add	a5,a5,t1
    800016a4:	00c70633          	add	a2,a4,a2
    800016a8:	0080006f          	j	800016b0 <itoa+0xcc>
    800016ac:	0007c683          	lbu	a3,0(a5)
    800016b0:	00d70023          	sb	a3,0(a4)
    800016b4:	00170713          	addi	a4,a4,1
    800016b8:	fff78793          	addi	a5,a5,-1
    800016bc:	fec718e3          	bne	a4,a2,800016ac <itoa+0xc8>
    800016c0:	00060023          	sb	zero,0(a2)
    800016c4:	09010113          	addi	sp,sp,144
    800016c8:	00008067          	ret
    800016cc:	02d00713          	li	a4,45
    800016d0:	00e58023          	sb	a4,0(a1)
    800016d4:	40f007bb          	negw	a5,a5
    800016d8:	00158713          	addi	a4,a1,1
    800016dc:	f8dff06f          	j	80001668 <itoa+0x84>
    800016e0:	00058613          	mv	a2,a1
    800016e4:	00060023          	sb	zero,0(a2)
    800016e8:	09010113          	addi	sp,sp,144
    800016ec:	00008067          	ret

00000000800016f0 <printf>:
    800016f0:	f1010113          	addi	sp,sp,-240
    800016f4:	09213823          	sd	s2,144(sp)
    800016f8:	0a113423          	sd	ra,168(sp)
    800016fc:	0a813023          	sd	s0,160(sp)
    80001700:	08913c23          	sd	s1,152(sp)
    80001704:	09313423          	sd	s3,136(sp)
    80001708:	09413023          	sd	s4,128(sp)
    8000170c:	07513c23          	sd	s5,120(sp)
    80001710:	07613823          	sd	s6,112(sp)
    80001714:	00050913          	mv	s2,a0
    80001718:	00054503          	lbu	a0,0(a0)
    8000171c:	0cf13c23          	sd	a5,216(sp)
    80001720:	0b810793          	addi	a5,sp,184
    80001724:	0ab13c23          	sd	a1,184(sp)
    80001728:	0cc13023          	sd	a2,192(sp)
    8000172c:	0cd13423          	sd	a3,200(sp)
    80001730:	0ce13823          	sd	a4,208(sp)
    80001734:	0f013023          	sd	a6,224(sp)
    80001738:	0f113423          	sd	a7,232(sp)
    8000173c:	00f13023          	sd	a5,0(sp)
    80001740:	02050e63          	beqz	a0,8000177c <printf+0x8c>
    80001744:	00000413          	li	s0,0
    80001748:	02500993          	li	s3,37
    8000174c:	07300a13          	li	s4,115
    80001750:	06400a93          	li	s5,100
    80001754:	0d351e63          	bne	a0,s3,80001830 <printf+0x140>
    80001758:	0014041b          	addiw	s0,s0,1
    8000175c:	00890b33          	add	s6,s2,s0
    80001760:	000b4783          	lbu	a5,0(s6)
    80001764:	05478263          	beq	a5,s4,800017a8 <printf+0xb8>
    80001768:	07578a63          	beq	a5,s5,800017dc <printf+0xec>
    8000176c:	0014041b          	addiw	s0,s0,1
    80001770:	008907b3          	add	a5,s2,s0
    80001774:	0007c503          	lbu	a0,0(a5)
    80001778:	fc051ee3          	bnez	a0,80001754 <printf+0x64>
    8000177c:	0a813083          	ld	ra,168(sp)
    80001780:	0a013403          	ld	s0,160(sp)
    80001784:	09813483          	ld	s1,152(sp)
    80001788:	09013903          	ld	s2,144(sp)
    8000178c:	08813983          	ld	s3,136(sp)
    80001790:	08013a03          	ld	s4,128(sp)
    80001794:	07813a83          	ld	s5,120(sp)
    80001798:	07013b03          	ld	s6,112(sp)
    8000179c:	00000513          	li	a0,0
    800017a0:	0f010113          	addi	sp,sp,240
    800017a4:	00008067          	ret
    800017a8:	00013783          	ld	a5,0(sp)
    800017ac:	0007b483          	ld	s1,0(a5)
    800017b0:	00878793          	addi	a5,a5,8
    800017b4:	00f13023          	sd	a5,0(sp)
    800017b8:	0004c503          	lbu	a0,0(s1)
    800017bc:	fa0508e3          	beqz	a0,8000176c <printf+0x7c>
    800017c0:	00148493          	addi	s1,s1,1
    800017c4:	00148493          	addi	s1,s1,1
    800017c8:	851ff0ef          	jal	ra,80001018 <putch>
    800017cc:	fff4c503          	lbu	a0,-1(s1)
    800017d0:	fe051ae3          	bnez	a0,800017c4 <printf+0xd4>
    800017d4:	000b4783          	lbu	a5,0(s6)
    800017d8:	f9579ae3          	bne	a5,s5,8000176c <printf+0x7c>
    800017dc:	00013783          	ld	a5,0(sp)
    800017e0:	00013423          	sd	zero,8(sp)
    800017e4:	00013823          	sd	zero,16(sp)
    800017e8:	0007a503          	lw	a0,0(a5)
    800017ec:	00878793          	addi	a5,a5,8
    800017f0:	00013c23          	sd	zero,24(sp)
    800017f4:	02013023          	sd	zero,32(sp)
    800017f8:	02013423          	sd	zero,40(sp)
    800017fc:	02013823          	sd	zero,48(sp)
    80001800:	02013c23          	sd	zero,56(sp)
    80001804:	04013023          	sd	zero,64(sp)
    80001808:	04013423          	sd	zero,72(sp)
    8000180c:	04013823          	sd	zero,80(sp)
    80001810:	04013c23          	sd	zero,88(sp)
    80001814:	06013023          	sd	zero,96(sp)
    80001818:	06012423          	sw	zero,104(sp)
    8000181c:	00f13023          	sd	a5,0(sp)
    80001820:	00051c63          	bnez	a0,80001838 <printf+0x148>
    80001824:	03000513          	li	a0,48
    80001828:	ff0ff0ef          	jal	ra,80001018 <putch>
    8000182c:	f41ff06f          	j	8000176c <printf+0x7c>
    80001830:	fe8ff0ef          	jal	ra,80001018 <putch>
    80001834:	f39ff06f          	j	8000176c <printf+0x7c>
    80001838:	00a00613          	li	a2,10
    8000183c:	00810593          	addi	a1,sp,8
    80001840:	da5ff0ef          	jal	ra,800015e4 <itoa>
    80001844:	00814503          	lbu	a0,8(sp)
    80001848:	00910493          	addi	s1,sp,9
    8000184c:	f20500e3          	beqz	a0,8000176c <printf+0x7c>
    80001850:	00148493          	addi	s1,s1,1
    80001854:	fc4ff0ef          	jal	ra,80001018 <putch>
    80001858:	fff4c503          	lbu	a0,-1(s1)
    8000185c:	fe051ae3          	bnez	a0,80001850 <printf+0x160>
    80001860:	f0dff06f          	j	8000176c <printf+0x7c>

0000000080001864 <strcmp>:
    80001864:	00054703          	lbu	a4,0(a0)
    80001868:	02070e63          	beqz	a4,800018a4 <strcmp+0x40>
    8000186c:	00000793          	li	a5,0
    80001870:	00c0006f          	j	8000187c <strcmp+0x18>
    80001874:	00064703          	lbu	a4,0(a2)
    80001878:	02070463          	beqz	a4,800018a0 <strcmp+0x3c>
    8000187c:	00f586b3          	add	a3,a1,a5
    80001880:	0006c683          	lbu	a3,0(a3)
    80001884:	00178793          	addi	a5,a5,1
    80001888:	00f50633          	add	a2,a0,a5
    8000188c:	fee684e3          	beq	a3,a4,80001874 <strcmp+0x10>
    80001890:	fff00513          	li	a0,-1
    80001894:	00d76e63          	bltu	a4,a3,800018b0 <strcmp+0x4c>
    80001898:	00100513          	li	a0,1
    8000189c:	00008067          	ret
    800018a0:	00f585b3          	add	a1,a1,a5
    800018a4:	0005c503          	lbu	a0,0(a1)
    800018a8:	00a03533          	snez	a0,a0
    800018ac:	40a00533          	neg	a0,a0
    800018b0:	00008067          	ret

00000000800018b4 <strncmp>:
    800018b4:	ff010113          	addi	sp,sp,-16
    800018b8:	00813023          	sd	s0,0(sp)
    800018bc:	00113423          	sd	ra,8(sp)
    800018c0:	00001417          	auipc	s0,0x1
    800018c4:	40840413          	addi	s0,s0,1032 # 80002cc8 <dy.0+0x358>
    800018c8:	04100513          	li	a0,65
    800018cc:	00140413          	addi	s0,s0,1
    800018d0:	f48ff0ef          	jal	ra,80001018 <putch>
    800018d4:	00044503          	lbu	a0,0(s0)
    800018d8:	fe051ae3          	bnez	a0,800018cc <strncmp+0x18>
    800018dc:	00001417          	auipc	s0,0x1
    800018e0:	3fc40413          	addi	s0,s0,1020 # 80002cd8 <dy.0+0x368>
    800018e4:	04e00513          	li	a0,78
    800018e8:	00140413          	addi	s0,s0,1
    800018ec:	f2cff0ef          	jal	ra,80001018 <putch>
    800018f0:	00044503          	lbu	a0,0(s0)
    800018f4:	fe051ae3          	bnez	a0,800018e8 <strncmp+0x34>
    800018f8:	00001417          	auipc	s0,0x1
    800018fc:	3f040413          	addi	s0,s0,1008 # 80002ce8 <dy.0+0x378>
    80001900:	02000513          	li	a0,32
    80001904:	00140413          	addi	s0,s0,1
    80001908:	f10ff0ef          	jal	ra,80001018 <putch>
    8000190c:	00044503          	lbu	a0,0(s0)
    80001910:	fe051ae3          	bnez	a0,80001904 <strncmp+0x50>
    80001914:	00100513          	li	a0,1
    80001918:	f10ff0ef          	jal	ra,80001028 <halt>

000000008000191c <memcpy>:
    8000191c:	02060063          	beqz	a2,8000193c <memcpy+0x20>
    80001920:	00050793          	mv	a5,a0
    80001924:	00c58633          	add	a2,a1,a2
    80001928:	0005c703          	lbu	a4,0(a1)
    8000192c:	00158593          	addi	a1,a1,1
    80001930:	00178793          	addi	a5,a5,1
    80001934:	fee78fa3          	sb	a4,-1(a5)
    80001938:	fec598e3          	bne	a1,a2,80001928 <memcpy+0xc>
    8000193c:	00008067          	ret
